
15March_HS.elf:     file format elf32-avr

Sections:
Idx Name          Size      VMA       LMA       File off  Algn
  0 .data         00000406  00800100  00004314  000043a8  2**0
                  CONTENTS, ALLOC, LOAD, DATA
  1 .text         00004314  00000000  00000000  00000094  2**1
                  CONTENTS, ALLOC, LOAD, READONLY, CODE
  2 .bss          000001b5  00800506  00800506  000047ae  2**0
                  ALLOC
  3 .comment      00000030  00000000  00000000  000047ae  2**0
                  CONTENTS, READONLY
  4 .note.gnu.avr.deviceinfo 0000003c  00000000  00000000  000047e0  2**2
                  CONTENTS, READONLY
  5 .debug_aranges 000000a0  00000000  00000000  00004820  2**3
                  CONTENTS, READONLY, DEBUGGING
  6 .debug_info   00000add  00000000  00000000  000048c0  2**0
                  CONTENTS, READONLY, DEBUGGING
  7 .debug_abbrev 0000077c  00000000  00000000  0000539d  2**0
                  CONTENTS, READONLY, DEBUGGING
  8 .debug_line   000003e8  00000000  00000000  00005b19  2**0
                  CONTENTS, READONLY, DEBUGGING
  9 .debug_str    0000027d  00000000  00000000  00005f01  2**0
                  CONTENTS, READONLY, DEBUGGING

Disassembly of section .text:

00000000 <__vectors>:
       0:	52 c0       	rjmp	.+164    	; 0xa6 <__ctors_end>
       2:	00 00       	nop
       4:	6f c0       	rjmp	.+222    	; 0xe4 <__bad_interrupt>
       6:	00 00       	nop
       8:	6d c0       	rjmp	.+218    	; 0xe4 <__bad_interrupt>
       a:	00 00       	nop
       c:	6b c0       	rjmp	.+214    	; 0xe4 <__bad_interrupt>
       e:	00 00       	nop
      10:	69 c0       	rjmp	.+210    	; 0xe4 <__bad_interrupt>
      12:	00 00       	nop
      14:	67 c0       	rjmp	.+206    	; 0xe4 <__bad_interrupt>
      16:	00 00       	nop
      18:	65 c0       	rjmp	.+202    	; 0xe4 <__bad_interrupt>
      1a:	00 00       	nop
      1c:	63 c0       	rjmp	.+198    	; 0xe4 <__bad_interrupt>
      1e:	00 00       	nop
      20:	0c 94 7c 0c 	jmp	0x18f8	; 0x18f8 <__vector_8>
      24:	5f c0       	rjmp	.+190    	; 0xe4 <__bad_interrupt>
      26:	00 00       	nop
      28:	5d c0       	rjmp	.+186    	; 0xe4 <__bad_interrupt>
      2a:	00 00       	nop
      2c:	5b c0       	rjmp	.+182    	; 0xe4 <__bad_interrupt>
      2e:	00 00       	nop
      30:	59 c0       	rjmp	.+178    	; 0xe4 <__bad_interrupt>
      32:	00 00       	nop
      34:	57 c0       	rjmp	.+174    	; 0xe4 <__bad_interrupt>
      36:	00 00       	nop
      38:	55 c0       	rjmp	.+170    	; 0xe4 <__bad_interrupt>
      3a:	00 00       	nop
      3c:	53 c0       	rjmp	.+166    	; 0xe4 <__bad_interrupt>
      3e:	00 00       	nop
      40:	0c 94 9a 0c 	jmp	0x1934	; 0x1934 <__vector_16>
      44:	4f c0       	rjmp	.+158    	; 0xe4 <__bad_interrupt>
      46:	00 00       	nop
      48:	4d c0       	rjmp	.+154    	; 0xe4 <__bad_interrupt>
      4a:	00 00       	nop
      4c:	4b c0       	rjmp	.+150    	; 0xe4 <__bad_interrupt>
      4e:	00 00       	nop
      50:	49 c0       	rjmp	.+146    	; 0xe4 <__bad_interrupt>
      52:	00 00       	nop
      54:	47 c0       	rjmp	.+142    	; 0xe4 <__bad_interrupt>
      56:	00 00       	nop
      58:	45 c0       	rjmp	.+138    	; 0xe4 <__bad_interrupt>
      5a:	00 00       	nop
      5c:	43 c0       	rjmp	.+134    	; 0xe4 <__bad_interrupt>
      5e:	00 00       	nop
      60:	41 c0       	rjmp	.+130    	; 0xe4 <__bad_interrupt>
      62:	00 00       	nop
      64:	3f c0       	rjmp	.+126    	; 0xe4 <__bad_interrupt>
      66:	00 00       	nop
      68:	3d c0       	rjmp	.+122    	; 0xe4 <__bad_interrupt>
      6a:	00 00       	nop
      6c:	3b c0       	rjmp	.+118    	; 0xe4 <__bad_interrupt>
      6e:	00 00       	nop
      70:	39 c0       	rjmp	.+114    	; 0xe4 <__bad_interrupt>
      72:	00 00       	nop
      74:	37 c0       	rjmp	.+110    	; 0xe4 <__bad_interrupt>
      76:	00 00       	nop
      78:	35 c0       	rjmp	.+106    	; 0xe4 <__bad_interrupt>
      7a:	00 00       	nop
      7c:	33 c0       	rjmp	.+102    	; 0xe4 <__bad_interrupt>
      7e:	00 00       	nop
      80:	31 c0       	rjmp	.+98     	; 0xe4 <__bad_interrupt>
      82:	00 00       	nop
      84:	2f c0       	rjmp	.+94     	; 0xe4 <__bad_interrupt>
      86:	00 00       	nop
      88:	2d c0       	rjmp	.+90     	; 0xe4 <__bad_interrupt>
      8a:	00 00       	nop
      8c:	a9 19       	sub	r26, r9
      8e:	ad 19       	sub	r26, r13
      90:	b1 19       	sub	r27, r1
      92:	b5 19       	sub	r27, r5
      94:	b9 19       	sub	r27, r9
      96:	bd 19       	sub	r27, r13
      98:	c1 19       	sub	r28, r1
      9a:	c5 19       	sub	r28, r5
      9c:	c9 19       	sub	r28, r9
      9e:	cd 19       	sub	r28, r13
      a0:	d1 19       	sub	r29, r1
      a2:	d5 19       	sub	r29, r5
      a4:	d9 19       	sub	r29, r9

000000a6 <__ctors_end>:
      a6:	11 24       	eor	r1, r1
      a8:	1f be       	out	0x3f, r1	; 63
      aa:	cf ef       	ldi	r28, 0xFF	; 255
      ac:	d0 e1       	ldi	r29, 0x10	; 16
      ae:	de bf       	out	0x3e, r29	; 62
      b0:	cd bf       	out	0x3d, r28	; 61

000000b2 <__do_copy_data>:
      b2:	15 e0       	ldi	r17, 0x05	; 5
      b4:	a0 e0       	ldi	r26, 0x00	; 0
      b6:	b1 e0       	ldi	r27, 0x01	; 1
      b8:	e4 e1       	ldi	r30, 0x14	; 20
      ba:	f3 e4       	ldi	r31, 0x43	; 67
      bc:	00 e0       	ldi	r16, 0x00	; 0
      be:	0b bf       	out	0x3b, r16	; 59
      c0:	02 c0       	rjmp	.+4      	; 0xc6 <__do_copy_data+0x14>
      c2:	07 90       	elpm	r0, Z+
      c4:	0d 92       	st	X+, r0
      c6:	a6 30       	cpi	r26, 0x06	; 6
      c8:	b1 07       	cpc	r27, r17
      ca:	d9 f7       	brne	.-10     	; 0xc2 <__do_copy_data+0x10>

000000cc <__do_clear_bss>:
      cc:	26 e0       	ldi	r18, 0x06	; 6
      ce:	a6 e0       	ldi	r26, 0x06	; 6
      d0:	b5 e0       	ldi	r27, 0x05	; 5
      d2:	01 c0       	rjmp	.+2      	; 0xd6 <.do_clear_bss_start>

000000d4 <.do_clear_bss_loop>:
      d4:	1d 92       	st	X+, r1

000000d6 <.do_clear_bss_start>:
      d6:	ab 3b       	cpi	r26, 0xBB	; 187
      d8:	b2 07       	cpc	r27, r18
      da:	e1 f7       	brne	.-8      	; 0xd4 <.do_clear_bss_loop>
      dc:	0e 94 e0 1d 	call	0x3bc0	; 0x3bc0 <main>
      e0:	0c 94 88 21 	jmp	0x4310	; 0x4310 <_exit>

000000e4 <__bad_interrupt>:
      e4:	8d cf       	rjmp	.-230    	; 0x0 <__vectors>

000000e6 <pwm_init>:
      e6:	bf 9a       	sbi	0x17, 7	; 23
      e8:	8f ef       	ldi	r24, 0xFF	; 255
      ea:	83 bd       	out	0x23, r24	; 35
      ec:	85 b5       	in	r24, 0x25	; 37
      ee:	80 62       	ori	r24, 0x20	; 32
      f0:	85 bd       	out	0x25, r24	; 37
      f2:	85 b5       	in	r24, 0x25	; 37
      f4:	88 64       	ori	r24, 0x48	; 72
      f6:	85 bd       	out	0x25, r24	; 37
      f8:	85 b5       	in	r24, 0x25	; 37
      fa:	82 60       	ori	r24, 0x02	; 2
      fc:	85 bd       	out	0x25, r24	; 37
      fe:	08 95       	ret

00000100 <pwm_disruct>:
     100:	13 bc       	out	0x23, r1	; 35
     102:	bf 98       	cbi	0x17, 7	; 23
     104:	08 95       	ret

00000106 <lcdInitHW>:
     106:	da 98       	cbi	0x1b, 2	; 27
     108:	8b b3       	in	r24, 0x1b	; 27
     10a:	8b bb       	out	0x1b, r24	; 27
     10c:	d8 98       	cbi	0x1b, 0	; 27
     10e:	8f ec       	ldi	r24, 0xCF	; 207
     110:	97 e0       	ldi	r25, 0x07	; 7
     112:	01 97       	sbiw	r24, 0x01	; 1
     114:	f1 f7       	brne	.-4      	; 0x112 <lcdInitHW+0xc>
     116:	00 c0       	rjmp	.+0      	; 0x118 <lcdInitHW+0x12>
     118:	00 00       	nop
     11a:	d2 9a       	sbi	0x1a, 2	; 26
     11c:	8a b3       	in	r24, 0x1a	; 26
     11e:	8a bb       	out	0x1a, r24	; 26
     120:	d0 9a       	sbi	0x1a, 0	; 26
     122:	8f ec       	ldi	r24, 0xCF	; 207
     124:	97 e0       	ldi	r25, 0x07	; 7
     126:	01 97       	sbiw	r24, 0x01	; 1
     128:	f1 f7       	brne	.-4      	; 0x126 <lcdInitHW+0x20>
     12a:	00 c0       	rjmp	.+0      	; 0x12c <lcdInitHW+0x26>
     12c:	00 00       	nop
     12e:	8f ec       	ldi	r24, 0xCF	; 207
     130:	97 e0       	ldi	r25, 0x07	; 7
     132:	01 97       	sbiw	r24, 0x01	; 1
     134:	f1 f7       	brne	.-4      	; 0x132 <lcdInitHW+0x2c>
     136:	00 c0       	rjmp	.+0      	; 0x138 <lcdInitHW+0x32>
     138:	00 00       	nop
     13a:	08 95       	ret

0000013c <lcdControlWrite>:
     13c:	ef e9       	ldi	r30, 0x9F	; 159
     13e:	ff e0       	ldi	r31, 0x0F	; 15
     140:	31 97       	sbiw	r30, 0x01	; 1
     142:	f1 f7       	brne	.-4      	; 0x140 <lcdControlWrite+0x4>
     144:	00 c0       	rjmp	.+0      	; 0x146 <lcdControlWrite+0xa>
     146:	00 00       	nop
     148:	da 98       	cbi	0x1b, 2	; 27
     14a:	9b b3       	in	r25, 0x1b	; 27
     14c:	9b bb       	out	0x1b, r25	; 27
     14e:	d8 9a       	sbi	0x1b, 0	; 27
     150:	9a b3       	in	r25, 0x1a	; 26
     152:	90 6f       	ori	r25, 0xF0	; 240
     154:	9a bb       	out	0x1a, r25	; 26
     156:	9b b3       	in	r25, 0x1b	; 27
     158:	9f 70       	andi	r25, 0x0F	; 15
     15a:	28 2f       	mov	r18, r24
     15c:	20 7f       	andi	r18, 0xF0	; 240
     15e:	92 2b       	or	r25, r18
     160:	9b bb       	out	0x1b, r25	; 27
     162:	d8 98       	cbi	0x1b, 0	; 27
     164:	d8 9a       	sbi	0x1b, 0	; 27
     166:	2b b3       	in	r18, 0x1b	; 27
     168:	2f 70       	andi	r18, 0x0F	; 15
     16a:	f0 e1       	ldi	r31, 0x10	; 16
     16c:	8f 9f       	mul	r24, r31
     16e:	c0 01       	movw	r24, r0
     170:	11 24       	eor	r1, r1
     172:	82 2b       	or	r24, r18
     174:	8b bb       	out	0x1b, r24	; 27
     176:	d8 98       	cbi	0x1b, 0	; 27
     178:	08 95       	ret

0000017a <lcdDataWrite>:
     17a:	ef ec       	ldi	r30, 0xCF	; 207
     17c:	f7 e0       	ldi	r31, 0x07	; 7
     17e:	31 97       	sbiw	r30, 0x01	; 1
     180:	f1 f7       	brne	.-4      	; 0x17e <lcdDataWrite+0x4>
     182:	00 c0       	rjmp	.+0      	; 0x184 <lcdDataWrite+0xa>
	...
     190:	00 00       	nop
     192:	da 9a       	sbi	0x1b, 2	; 27
     194:	9b b3       	in	r25, 0x1b	; 27
     196:	9b bb       	out	0x1b, r25	; 27
     198:	d8 9a       	sbi	0x1b, 0	; 27
     19a:	00 00       	nop
     19c:	00 00       	nop
     19e:	00 00       	nop
     1a0:	9a b3       	in	r25, 0x1a	; 26
     1a2:	90 6f       	ori	r25, 0xF0	; 240
     1a4:	9a bb       	out	0x1a, r25	; 26
     1a6:	9b b3       	in	r25, 0x1b	; 27
     1a8:	9f 70       	andi	r25, 0x0F	; 15
     1aa:	28 2f       	mov	r18, r24
     1ac:	20 7f       	andi	r18, 0xF0	; 240
     1ae:	92 2b       	or	r25, r18
     1b0:	9b bb       	out	0x1b, r25	; 27
     1b2:	00 00       	nop
     1b4:	00 00       	nop
     1b6:	00 00       	nop
     1b8:	d8 98       	cbi	0x1b, 0	; 27
     1ba:	00 00       	nop
     1bc:	00 00       	nop
     1be:	00 00       	nop
     1c0:	d8 9a       	sbi	0x1b, 0	; 27
     1c2:	00 00       	nop
     1c4:	00 00       	nop
     1c6:	00 00       	nop
     1c8:	2b b3       	in	r18, 0x1b	; 27
     1ca:	2f 70       	andi	r18, 0x0F	; 15
     1cc:	f0 e1       	ldi	r31, 0x10	; 16
     1ce:	8f 9f       	mul	r24, r31
     1d0:	c0 01       	movw	r24, r0
     1d2:	11 24       	eor	r1, r1
     1d4:	82 2b       	or	r24, r18
     1d6:	8b bb       	out	0x1b, r24	; 27
     1d8:	00 00       	nop
     1da:	00 00       	nop
     1dc:	00 00       	nop
     1de:	d8 98       	cbi	0x1b, 0	; 27
     1e0:	00 00       	nop
     1e2:	00 00       	nop
     1e4:	00 00       	nop
     1e6:	08 95       	ret

000001e8 <lcdInit>:
     1e8:	8f ec       	ldi	r24, 0xCF	; 207
     1ea:	97 e0       	ldi	r25, 0x07	; 7
     1ec:	01 97       	sbiw	r24, 0x01	; 1
     1ee:	f1 f7       	brne	.-4      	; 0x1ec <lcdInit+0x4>
     1f0:	00 c0       	rjmp	.+0      	; 0x1f2 <lcdInit+0xa>
     1f2:	00 00       	nop
     1f4:	88 df       	rcall	.-240    	; 0x106 <lcdInitHW>
     1f6:	80 e0       	ldi	r24, 0x00	; 0
     1f8:	a1 df       	rcall	.-190    	; 0x13c <lcdControlWrite>
     1fa:	8f ec       	ldi	r24, 0xCF	; 207
     1fc:	97 e0       	ldi	r25, 0x07	; 7
     1fe:	01 97       	sbiw	r24, 0x01	; 1
     200:	f1 f7       	brne	.-4      	; 0x1fe <lcdInit+0x16>
     202:	00 c0       	rjmp	.+0      	; 0x204 <lcdInit+0x1c>
     204:	00 00       	nop
     206:	88 e2       	ldi	r24, 0x28	; 40
     208:	99 df       	rcall	.-206    	; 0x13c <lcdControlWrite>
     20a:	81 e0       	ldi	r24, 0x01	; 1
     20c:	97 df       	rcall	.-210    	; 0x13c <lcdControlWrite>
     20e:	9f ef       	ldi	r25, 0xFF	; 255
     210:	20 e7       	ldi	r18, 0x70	; 112
     212:	82 e0       	ldi	r24, 0x02	; 2
     214:	91 50       	subi	r25, 0x01	; 1
     216:	20 40       	sbci	r18, 0x00	; 0
     218:	80 40       	sbci	r24, 0x00	; 0
     21a:	e1 f7       	brne	.-8      	; 0x214 <lcdInit+0x2c>
     21c:	00 c0       	rjmp	.+0      	; 0x21e <lcdInit+0x36>
     21e:	00 00       	nop
     220:	8f ec       	ldi	r24, 0xCF	; 207
     222:	97 e0       	ldi	r25, 0x07	; 7
     224:	01 97       	sbiw	r24, 0x01	; 1
     226:	f1 f7       	brne	.-4      	; 0x224 <lcdInit+0x3c>
     228:	00 c0       	rjmp	.+0      	; 0x22a <lcdInit+0x42>
     22a:	00 00       	nop
     22c:	86 e0       	ldi	r24, 0x06	; 6
     22e:	86 df       	rcall	.-244    	; 0x13c <lcdControlWrite>
     230:	8f ec       	ldi	r24, 0xCF	; 207
     232:	97 e0       	ldi	r25, 0x07	; 7
     234:	01 97       	sbiw	r24, 0x01	; 1
     236:	f1 f7       	brne	.-4      	; 0x234 <lcdInit+0x4c>
     238:	00 c0       	rjmp	.+0      	; 0x23a <lcdInit+0x52>
     23a:	00 00       	nop
     23c:	8c e0       	ldi	r24, 0x0C	; 12
     23e:	7e df       	rcall	.-260    	; 0x13c <lcdControlWrite>
     240:	8f ec       	ldi	r24, 0xCF	; 207
     242:	97 e0       	ldi	r25, 0x07	; 7
     244:	01 97       	sbiw	r24, 0x01	; 1
     246:	f1 f7       	brne	.-4      	; 0x244 <lcdInit+0x5c>
     248:	00 c0       	rjmp	.+0      	; 0x24a <lcdInit+0x62>
     24a:	00 00       	nop
     24c:	8f ec       	ldi	r24, 0xCF	; 207
     24e:	97 e0       	ldi	r25, 0x07	; 7
     250:	01 97       	sbiw	r24, 0x01	; 1
     252:	f1 f7       	brne	.-4      	; 0x250 <lcdInit+0x68>
     254:	00 c0       	rjmp	.+0      	; 0x256 <lcdInit+0x6e>
     256:	00 00       	nop
     258:	8f ec       	ldi	r24, 0xCF	; 207
     25a:	97 e0       	ldi	r25, 0x07	; 7
     25c:	01 97       	sbiw	r24, 0x01	; 1
     25e:	f1 f7       	brne	.-4      	; 0x25c <lcdInit+0x74>
     260:	00 c0       	rjmp	.+0      	; 0x262 <lcdInit+0x7a>
     262:	00 00       	nop
     264:	08 95       	ret

00000266 <lcdClear>:
     266:	81 e0       	ldi	r24, 0x01	; 1
     268:	69 cf       	rjmp	.-302    	; 0x13c <lcdControlWrite>

0000026a <lcdPrintData>:
     26a:	0f 93       	push	r16
     26c:	1f 93       	push	r17
     26e:	cf 93       	push	r28
     270:	df 93       	push	r29
     272:	00 97       	sbiw	r24, 0x00	; 0
     274:	51 f0       	breq	.+20     	; 0x28a <lcdPrintData+0x20>
     276:	ec 01       	movw	r28, r24
     278:	8c 01       	movw	r16, r24
     27a:	06 0f       	add	r16, r22
     27c:	11 1d       	adc	r17, r1
     27e:	c0 17       	cp	r28, r16
     280:	d1 07       	cpc	r29, r17
     282:	19 f0       	breq	.+6      	; 0x28a <lcdPrintData+0x20>
     284:	89 91       	ld	r24, Y+
     286:	79 df       	rcall	.-270    	; 0x17a <lcdDataWrite>
     288:	fa cf       	rjmp	.-12     	; 0x27e <lcdPrintData+0x14>
     28a:	df 91       	pop	r29
     28c:	cf 91       	pop	r28
     28e:	1f 91       	pop	r17
     290:	0f 91       	pop	r16
     292:	08 95       	ret

00000294 <disp_delay>:
     294:	a8 95       	wdr
     296:	9f e0       	ldi	r25, 0x0F	; 15
     298:	88 e1       	ldi	r24, 0x18	; 24
     29a:	0f b6       	in	r0, 0x3f	; 63
     29c:	f8 94       	cli
     29e:	a8 95       	wdr
     2a0:	81 bd       	out	0x21, r24	; 33
     2a2:	0f be       	out	0x3f, r0	; 63
     2a4:	91 bd       	out	0x21, r25	; 33
     2a6:	2f ef       	ldi	r18, 0xFF	; 255
     2a8:	89 e6       	ldi	r24, 0x69	; 105
     2aa:	98 e1       	ldi	r25, 0x18	; 24
     2ac:	21 50       	subi	r18, 0x01	; 1
     2ae:	80 40       	sbci	r24, 0x00	; 0
     2b0:	90 40       	sbci	r25, 0x00	; 0
     2b2:	e1 f7       	brne	.-8      	; 0x2ac <disp_delay+0x18>
     2b4:	00 c0       	rjmp	.+0      	; 0x2b6 <disp_delay+0x22>
     2b6:	00 00       	nop
     2b8:	a8 95       	wdr
     2ba:	9f e0       	ldi	r25, 0x0F	; 15
     2bc:	88 e1       	ldi	r24, 0x18	; 24
     2be:	0f b6       	in	r0, 0x3f	; 63
     2c0:	f8 94       	cli
     2c2:	a8 95       	wdr
     2c4:	81 bd       	out	0x21, r24	; 33
     2c6:	0f be       	out	0x3f, r0	; 63
     2c8:	91 bd       	out	0x21, r25	; 33
     2ca:	2f ef       	ldi	r18, 0xFF	; 255
     2cc:	89 e6       	ldi	r24, 0x69	; 105
     2ce:	98 e1       	ldi	r25, 0x18	; 24
     2d0:	21 50       	subi	r18, 0x01	; 1
     2d2:	80 40       	sbci	r24, 0x00	; 0
     2d4:	90 40       	sbci	r25, 0x00	; 0
     2d6:	e1 f7       	brne	.-8      	; 0x2d0 <disp_delay+0x3c>
     2d8:	00 c0       	rjmp	.+0      	; 0x2da <disp_delay+0x46>
     2da:	00 00       	nop
     2dc:	a8 95       	wdr
     2de:	9f e0       	ldi	r25, 0x0F	; 15
     2e0:	88 e1       	ldi	r24, 0x18	; 24
     2e2:	0f b6       	in	r0, 0x3f	; 63
     2e4:	f8 94       	cli
     2e6:	a8 95       	wdr
     2e8:	81 bd       	out	0x21, r24	; 33
     2ea:	0f be       	out	0x3f, r0	; 63
     2ec:	91 bd       	out	0x21, r25	; 33
     2ee:	2f ef       	ldi	r18, 0xFF	; 255
     2f0:	89 e6       	ldi	r24, 0x69	; 105
     2f2:	98 e1       	ldi	r25, 0x18	; 24
     2f4:	21 50       	subi	r18, 0x01	; 1
     2f6:	80 40       	sbci	r24, 0x00	; 0
     2f8:	90 40       	sbci	r25, 0x00	; 0
     2fa:	e1 f7       	brne	.-8      	; 0x2f4 <disp_delay+0x60>
     2fc:	00 c0       	rjmp	.+0      	; 0x2fe <disp_delay+0x6a>
     2fe:	00 00       	nop
     300:	a8 95       	wdr
     302:	9f e0       	ldi	r25, 0x0F	; 15
     304:	88 e1       	ldi	r24, 0x18	; 24
     306:	0f b6       	in	r0, 0x3f	; 63
     308:	f8 94       	cli
     30a:	a8 95       	wdr
     30c:	81 bd       	out	0x21, r24	; 33
     30e:	0f be       	out	0x3f, r0	; 63
     310:	91 bd       	out	0x21, r25	; 33
     312:	2f ef       	ldi	r18, 0xFF	; 255
     314:	89 e6       	ldi	r24, 0x69	; 105
     316:	98 e1       	ldi	r25, 0x18	; 24
     318:	21 50       	subi	r18, 0x01	; 1
     31a:	80 40       	sbci	r24, 0x00	; 0
     31c:	90 40       	sbci	r25, 0x00	; 0
     31e:	e1 f7       	brne	.-8      	; 0x318 <disp_delay+0x84>
     320:	00 c0       	rjmp	.+0      	; 0x322 <disp_delay+0x8e>
     322:	00 00       	nop
     324:	a0 cf       	rjmp	.-192    	; 0x266 <lcdClear>

00000326 <adc_init>:
     326:	80 e4       	ldi	r24, 0x40	; 64
     328:	87 b9       	out	0x07, r24	; 7
     32a:	86 b1       	in	r24, 0x06	; 6
     32c:	87 60       	ori	r24, 0x07	; 7
     32e:	86 b9       	out	0x06, r24	; 6
     330:	86 b1       	in	r24, 0x06	; 6
     332:	80 6a       	ori	r24, 0xA0	; 160
     334:	86 b9       	out	0x06, r24	; 6
     336:	08 95       	ret

00000338 <start_convar>:
     338:	85 e4       	ldi	r24, 0x45	; 69
     33a:	87 b9       	out	0x07, r24	; 7
     33c:	8f e1       	ldi	r24, 0x1F	; 31
     33e:	9e e4       	ldi	r25, 0x4E	; 78
     340:	01 97       	sbiw	r24, 0x01	; 1
     342:	f1 f7       	brne	.-4      	; 0x340 <start_convar+0x8>
     344:	00 c0       	rjmp	.+0      	; 0x346 <start_convar+0xe>
     346:	00 00       	nop
     348:	64 b1       	in	r22, 0x04	; 4
     34a:	75 b1       	in	r23, 0x05	; 5
     34c:	07 2e       	mov	r0, r23
     34e:	00 0c       	add	r0, r0
     350:	88 0b       	sbc	r24, r24
     352:	99 0b       	sbc	r25, r25
     354:	0e 94 e5 1f 	call	0x3fca	; 0x3fca <__floatsisf>
     358:	2b ef       	ldi	r18, 0xFB	; 251
     35a:	3a e3       	ldi	r19, 0x3A	; 58
     35c:	40 e7       	ldi	r20, 0x70	; 112
     35e:	5d e3       	ldi	r21, 0x3D	; 61
     360:	0e 94 95 20 	call	0x412a	; 0x412a <__mulsf3>
     364:	9b 01       	movw	r18, r22
     366:	ac 01       	movw	r20, r24
     368:	60 93 58 05 	sts	0x0558, r22	; 0x800558 <floatvalB>
     36c:	70 93 59 05 	sts	0x0559, r23	; 0x800559 <floatvalB+0x1>
     370:	80 93 5a 05 	sts	0x055A, r24	; 0x80055a <floatvalB+0x2>
     374:	90 93 5b 05 	sts	0x055B, r25	; 0x80055b <floatvalB+0x3>
     378:	80 91 4e 05 	lds	r24, 0x054E	; 0x80054e <ADAVGCNTR>
     37c:	90 91 4f 05 	lds	r25, 0x054F	; 0x80054f <ADAVGCNTR+0x1>
     380:	8a 30       	cpi	r24, 0x0A	; 10
     382:	91 05       	cpc	r25, r1
     384:	c0 f4       	brcc	.+48     	; 0x3b6 <start_convar+0x7e>
     386:	01 96       	adiw	r24, 0x01	; 1
     388:	90 93 4f 05 	sts	0x054F, r25	; 0x80054f <ADAVGCNTR+0x1>
     38c:	80 93 4e 05 	sts	0x054E, r24	; 0x80054e <ADAVGCNTR>
     390:	60 91 54 05 	lds	r22, 0x0554	; 0x800554 <floatvalAVG>
     394:	70 91 55 05 	lds	r23, 0x0555	; 0x800555 <floatvalAVG+0x1>
     398:	80 91 56 05 	lds	r24, 0x0556	; 0x800556 <floatvalAVG+0x2>
     39c:	90 91 57 05 	lds	r25, 0x0557	; 0x800557 <floatvalAVG+0x3>
     3a0:	0e 94 e2 1e 	call	0x3dc4	; 0x3dc4 <__addsf3>
     3a4:	60 93 54 05 	sts	0x0554, r22	; 0x800554 <floatvalAVG>
     3a8:	70 93 55 05 	sts	0x0555, r23	; 0x800555 <floatvalAVG+0x1>
     3ac:	80 93 56 05 	sts	0x0556, r24	; 0x800556 <floatvalAVG+0x2>
     3b0:	90 93 57 05 	sts	0x0557, r25	; 0x800557 <floatvalAVG+0x3>
     3b4:	08 95       	ret
     3b6:	0a 97       	sbiw	r24, 0x0a	; 10
     3b8:	11 f5       	brne	.+68     	; 0x3fe <start_convar+0xc6>
     3ba:	10 92 4f 05 	sts	0x054F, r1	; 0x80054f <ADAVGCNTR+0x1>
     3be:	10 92 4e 05 	sts	0x054E, r1	; 0x80054e <ADAVGCNTR>
     3c2:	20 e0       	ldi	r18, 0x00	; 0
     3c4:	30 e0       	ldi	r19, 0x00	; 0
     3c6:	40 e2       	ldi	r20, 0x20	; 32
     3c8:	51 e4       	ldi	r21, 0x41	; 65
     3ca:	60 91 54 05 	lds	r22, 0x0554	; 0x800554 <floatvalAVG>
     3ce:	70 91 55 05 	lds	r23, 0x0555	; 0x800555 <floatvalAVG+0x1>
     3d2:	80 91 56 05 	lds	r24, 0x0556	; 0x800556 <floatvalAVG+0x2>
     3d6:	90 91 57 05 	lds	r25, 0x0557	; 0x800557 <floatvalAVG+0x3>
     3da:	0e 94 4a 1f 	call	0x3e94	; 0x3e94 <__divsf3>
     3de:	60 93 50 05 	sts	0x0550, r22	; 0x800550 <BTVOLT>
     3e2:	70 93 51 05 	sts	0x0551, r23	; 0x800551 <BTVOLT+0x1>
     3e6:	80 93 52 05 	sts	0x0552, r24	; 0x800552 <BTVOLT+0x2>
     3ea:	90 93 53 05 	sts	0x0553, r25	; 0x800553 <BTVOLT+0x3>
     3ee:	10 92 54 05 	sts	0x0554, r1	; 0x800554 <floatvalAVG>
     3f2:	10 92 55 05 	sts	0x0555, r1	; 0x800555 <floatvalAVG+0x1>
     3f6:	10 92 56 05 	sts	0x0556, r1	; 0x800556 <floatvalAVG+0x2>
     3fa:	10 92 57 05 	sts	0x0557, r1	; 0x800557 <floatvalAVG+0x3>
     3fe:	08 95       	ret

00000400 <start_convar2>:
     400:	87 e4       	ldi	r24, 0x47	; 71
     402:	87 b9       	out	0x07, r24	; 7
     404:	8f e1       	ldi	r24, 0x1F	; 31
     406:	9e e4       	ldi	r25, 0x4E	; 78
     408:	01 97       	sbiw	r24, 0x01	; 1
     40a:	f1 f7       	brne	.-4      	; 0x408 <start_convar2+0x8>
     40c:	00 c0       	rjmp	.+0      	; 0x40e <start_convar2+0xe>
     40e:	00 00       	nop
     410:	24 b1       	in	r18, 0x04	; 4
     412:	35 b1       	in	r19, 0x05	; 5
     414:	30 93 4d 05 	sts	0x054D, r19	; 0x80054d <PDB_temp+0x1>
     418:	20 93 4c 05 	sts	0x054C, r18	; 0x80054c <PDB_temp>
     41c:	40 91 4a 05 	lds	r20, 0x054A	; 0x80054a <ADAVGCNTR4>
     420:	50 91 4b 05 	lds	r21, 0x054B	; 0x80054b <ADAVGCNTR4+0x1>
     424:	80 91 48 05 	lds	r24, 0x0548	; 0x800548 <PDB_AVG>
     428:	90 91 49 05 	lds	r25, 0x0549	; 0x800549 <PDB_AVG+0x1>
     42c:	4a 30       	cpi	r20, 0x0A	; 10
     42e:	51 05       	cpc	r21, r1
     430:	68 f4       	brcc	.+26     	; 0x44c <start_convar2+0x4c>
     432:	4f 5f       	subi	r20, 0xFF	; 255
     434:	5f 4f       	sbci	r21, 0xFF	; 255
     436:	50 93 4b 05 	sts	0x054B, r21	; 0x80054b <ADAVGCNTR4+0x1>
     43a:	40 93 4a 05 	sts	0x054A, r20	; 0x80054a <ADAVGCNTR4>
     43e:	28 0f       	add	r18, r24
     440:	39 1f       	adc	r19, r25
     442:	30 93 49 05 	sts	0x0549, r19	; 0x800549 <PDB_AVG+0x1>
     446:	20 93 48 05 	sts	0x0548, r18	; 0x800548 <PDB_AVG>
     44a:	08 95       	ret
     44c:	10 92 4b 05 	sts	0x054B, r1	; 0x80054b <ADAVGCNTR4+0x1>
     450:	10 92 4a 05 	sts	0x054A, r1	; 0x80054a <ADAVGCNTR4>
     454:	6a e0       	ldi	r22, 0x0A	; 10
     456:	70 e0       	ldi	r23, 0x00	; 0
     458:	0e 94 04 21 	call	0x4208	; 0x4208 <__udivmodhi4>
     45c:	70 93 47 05 	sts	0x0547, r23	; 0x800547 <PDB+0x1>
     460:	60 93 46 05 	sts	0x0546, r22	; 0x800546 <PDB>
     464:	10 92 49 05 	sts	0x0549, r1	; 0x800549 <PDB_AVG+0x1>
     468:	10 92 48 05 	sts	0x0548, r1	; 0x800548 <PDB_AVG>
     46c:	08 95       	ret

0000046e <disp_int>:
     46e:	cf 93       	push	r28
     470:	df 93       	push	r29
     472:	ec 01       	movw	r28, r24
     474:	0a 97       	sbiw	r24, 0x0a	; 10
     476:	20 f4       	brcc	.+8      	; 0x480 <disp_int+0x12>
     478:	61 e0       	ldi	r22, 0x01	; 1
     47a:	86 e5       	ldi	r24, 0x56	; 86
     47c:	91 e0       	ldi	r25, 0x01	; 1
     47e:	f5 de       	rcall	.-534    	; 0x26a <lcdPrintData>
     480:	4a e0       	ldi	r20, 0x0A	; 10
     482:	6f ea       	ldi	r22, 0xAF	; 175
     484:	76 e0       	ldi	r23, 0x06	; 6
     486:	ce 01       	movw	r24, r28
     488:	0e 94 28 21 	call	0x4250	; 0x4250 <__itoa_ncheck>
     48c:	ef ea       	ldi	r30, 0xAF	; 175
     48e:	f6 e0       	ldi	r31, 0x06	; 6
     490:	01 90       	ld	r0, Z+
     492:	00 20       	and	r0, r0
     494:	e9 f7       	brne	.-6      	; 0x490 <disp_int+0x22>
     496:	31 97       	sbiw	r30, 0x01	; 1
     498:	bf 01       	movw	r22, r30
     49a:	6f 5a       	subi	r22, 0xAF	; 175
     49c:	76 40       	sbci	r23, 0x06	; 6
     49e:	8f ea       	ldi	r24, 0xAF	; 175
     4a0:	96 e0       	ldi	r25, 0x06	; 6
     4a2:	df 91       	pop	r29
     4a4:	cf 91       	pop	r28
     4a6:	e1 ce       	rjmp	.-574    	; 0x26a <lcdPrintData>

000004a8 <disp_float2>:
     4a8:	cf 92       	push	r12
     4aa:	df 92       	push	r13
     4ac:	ef 92       	push	r14
     4ae:	ff 92       	push	r15
     4b0:	0f 93       	push	r16
     4b2:	1f 93       	push	r17
     4b4:	cf 93       	push	r28
     4b6:	df 93       	push	r29
     4b8:	cd b7       	in	r28, 0x3d	; 61
     4ba:	de b7       	in	r29, 0x3e	; 62
     4bc:	2a 97       	sbiw	r28, 0x0a	; 10
     4be:	0f b6       	in	r0, 0x3f	; 63
     4c0:	f8 94       	cli
     4c2:	de bf       	out	0x3e, r29	; 62
     4c4:	0f be       	out	0x3f, r0	; 63
     4c6:	cd bf       	out	0x3d, r28	; 61
     4c8:	7c 01       	movw	r14, r24
     4ca:	89 2b       	or	r24, r25
     4cc:	21 f4       	brne	.+8      	; 0x4d6 <disp_float2+0x2e>
     4ce:	61 e0       	ldi	r22, 0x01	; 1
     4d0:	86 e5       	ldi	r24, 0x56	; 86
     4d2:	91 e0       	ldi	r25, 0x01	; 1
     4d4:	ca de       	rcall	.-620    	; 0x26a <lcdPrintData>
     4d6:	4a e0       	ldi	r20, 0x0A	; 10
     4d8:	8e 01       	movw	r16, r28
     4da:	0f 5f       	subi	r16, 0xFF	; 255
     4dc:	1f 4f       	sbci	r17, 0xFF	; 255
     4de:	b8 01       	movw	r22, r16
     4e0:	c7 01       	movw	r24, r14
     4e2:	0e 94 28 21 	call	0x4250	; 0x4250 <__itoa_ncheck>
     4e6:	8a e0       	ldi	r24, 0x0A	; 10
     4e8:	e8 16       	cp	r14, r24
     4ea:	f1 04       	cpc	r15, r1
     4ec:	78 f4       	brcc	.+30     	; 0x50c <disp_float2+0x64>
     4ee:	61 e0       	ldi	r22, 0x01	; 1
     4f0:	86 e5       	ldi	r24, 0x56	; 86
     4f2:	91 e0       	ldi	r25, 0x01	; 1
     4f4:	ba de       	rcall	.-652    	; 0x26a <lcdPrintData>
     4f6:	f8 01       	movw	r30, r16
     4f8:	01 90       	ld	r0, Z+
     4fa:	00 20       	and	r0, r0
     4fc:	e9 f7       	brne	.-6      	; 0x4f8 <disp_float2+0x50>
     4fe:	31 97       	sbiw	r30, 0x01	; 1
     500:	bf 01       	movw	r22, r30
     502:	60 1b       	sub	r22, r16
     504:	71 0b       	sbc	r23, r17
     506:	c8 01       	movw	r24, r16
     508:	b0 de       	rcall	.-672    	; 0x26a <lcdPrintData>
     50a:	1e c0       	rjmp	.+60     	; 0x548 <disp_float2+0xa0>
     50c:	f8 01       	movw	r30, r16
     50e:	01 90       	ld	r0, Z+
     510:	00 20       	and	r0, r0
     512:	e9 f7       	brne	.-6      	; 0x50e <disp_float2+0x66>
     514:	31 97       	sbiw	r30, 0x01	; 1
     516:	7f 01       	movw	r14, r30
     518:	e0 1a       	sub	r14, r16
     51a:	f1 0a       	sbc	r15, r17
     51c:	cc 24       	eor	r12, r12
     51e:	c3 94       	inc	r12
     520:	d1 2c       	mov	r13, r1
     522:	c7 01       	movw	r24, r14
     524:	8c 19       	sub	r24, r12
     526:	9d 09       	sbc	r25, r13
     528:	97 fd       	sbrc	r25, 7
     52a:	0e c0       	rjmp	.+28     	; 0x548 <disp_float2+0xa0>
     52c:	f8 01       	movw	r30, r16
     52e:	81 91       	ld	r24, Z+
     530:	8f 01       	movw	r16, r30
     532:	23 de       	rcall	.-954    	; 0x17a <lcdDataWrite>
     534:	f2 e0       	ldi	r31, 0x02	; 2
     536:	cf 16       	cp	r12, r31
     538:	d1 04       	cpc	r13, r1
     53a:	11 f4       	brne	.+4      	; 0x540 <disp_float2+0x98>
     53c:	8e e2       	ldi	r24, 0x2E	; 46
     53e:	1d de       	rcall	.-966    	; 0x17a <lcdDataWrite>
     540:	8f ef       	ldi	r24, 0xFF	; 255
     542:	c8 1a       	sub	r12, r24
     544:	d8 0a       	sbc	r13, r24
     546:	ed cf       	rjmp	.-38     	; 0x522 <disp_float2+0x7a>
     548:	2a 96       	adiw	r28, 0x0a	; 10
     54a:	0f b6       	in	r0, 0x3f	; 63
     54c:	f8 94       	cli
     54e:	de bf       	out	0x3e, r29	; 62
     550:	0f be       	out	0x3f, r0	; 63
     552:	cd bf       	out	0x3d, r28	; 61
     554:	df 91       	pop	r29
     556:	cf 91       	pop	r28
     558:	1f 91       	pop	r17
     55a:	0f 91       	pop	r16
     55c:	ff 90       	pop	r15
     55e:	ef 90       	pop	r14
     560:	df 90       	pop	r13
     562:	cf 90       	pop	r12
     564:	08 95       	ret

00000566 <ow_reset>:
     566:	1c 98       	cbi	0x03, 4	; 3
     568:	14 9a       	sbi	0x02, 4	; 2
     56a:	8f eb       	ldi	r24, 0xBF	; 191
     56c:	93 e0       	ldi	r25, 0x03	; 3
     56e:	01 97       	sbiw	r24, 0x01	; 1
     570:	f1 f7       	brne	.-4      	; 0x56e <ow_reset+0x8>
     572:	00 c0       	rjmp	.+0      	; 0x574 <ow_reset+0xe>
     574:	00 00       	nop
     576:	9f b7       	in	r25, 0x3f	; 63
     578:	f8 94       	cli
     57a:	14 98       	cbi	0x02, 4	; 2
     57c:	e0 eb       	ldi	r30, 0xB0	; 176
     57e:	ea 95       	dec	r30
     580:	f1 f7       	brne	.-4      	; 0x57e <ow_reset+0x18>
     582:	81 b1       	in	r24, 0x01	; 1
     584:	9f bf       	out	0x3f, r25	; 63
     586:	eb e3       	ldi	r30, 0x3B	; 59
     588:	f3 e0       	ldi	r31, 0x03	; 3
     58a:	31 97       	sbiw	r30, 0x01	; 1
     58c:	f1 f7       	brne	.-4      	; 0x58a <ow_reset+0x24>
     58e:	00 c0       	rjmp	.+0      	; 0x590 <ow_reset+0x2a>
     590:	00 00       	nop
     592:	0c 9b       	sbis	0x01, 4	; 1
     594:	02 c0       	rjmp	.+4      	; 0x59a <ow_reset+0x34>
     596:	80 71       	andi	r24, 0x10	; 16
     598:	08 95       	ret
     59a:	81 e0       	ldi	r24, 0x01	; 1
     59c:	08 95       	ret

0000059e <ow_bit_io>:
     59e:	9f b7       	in	r25, 0x3f	; 63
     5a0:	f8 94       	cli
     5a2:	14 9a       	sbi	0x02, 4	; 2
     5a4:	22 e0       	ldi	r18, 0x02	; 2
     5a6:	2a 95       	dec	r18
     5a8:	f1 f7       	brne	.-4      	; 0x5a6 <ow_bit_io+0x8>
     5aa:	00 c0       	rjmp	.+0      	; 0x5ac <ow_bit_io+0xe>
     5ac:	81 11       	cpse	r24, r1
     5ae:	14 98       	cbi	0x02, 4	; 2
     5b0:	25 e2       	ldi	r18, 0x25	; 37
     5b2:	2a 95       	dec	r18
     5b4:	f1 f7       	brne	.-4      	; 0x5b2 <ow_bit_io+0x14>
     5b6:	00 00       	nop
     5b8:	0c 9b       	sbis	0x01, 4	; 1
     5ba:	80 e0       	ldi	r24, 0x00	; 0
     5bc:	28 e7       	ldi	r18, 0x78	; 120
     5be:	2a 95       	dec	r18
     5c0:	f1 f7       	brne	.-4      	; 0x5be <ow_bit_io+0x20>
     5c2:	14 98       	cbi	0x02, 4	; 2
     5c4:	9f bf       	out	0x3f, r25	; 63
     5c6:	08 95       	ret

000005c8 <ow_byte_wr>:
     5c8:	cf 93       	push	r28
     5ca:	df 93       	push	r29
     5cc:	c8 2f       	mov	r28, r24
     5ce:	d8 e0       	ldi	r29, 0x08	; 8
     5d0:	8c 2f       	mov	r24, r28
     5d2:	81 70       	andi	r24, 0x01	; 1
     5d4:	e4 df       	rcall	.-56     	; 0x59e <ow_bit_io>
     5d6:	c6 95       	lsr	r28
     5d8:	81 11       	cpse	r24, r1
     5da:	c0 68       	ori	r28, 0x80	; 128
     5dc:	d1 50       	subi	r29, 0x01	; 1
     5de:	c1 f7       	brne	.-16     	; 0x5d0 <ow_byte_wr+0x8>
     5e0:	8c 2f       	mov	r24, r28
     5e2:	df 91       	pop	r29
     5e4:	cf 91       	pop	r28
     5e6:	08 95       	ret

000005e8 <ow_byte_rd>:
     5e8:	8f ef       	ldi	r24, 0xFF	; 255
     5ea:	ee cf       	rjmp	.-36     	; 0x5c8 <ow_byte_wr>

000005ec <ow_rom_search>:
     5ec:	ff 92       	push	r15
     5ee:	0f 93       	push	r16
     5f0:	1f 93       	push	r17
     5f2:	cf 93       	push	r28
     5f4:	df 93       	push	r29
     5f6:	08 2f       	mov	r16, r24
     5f8:	b6 df       	rcall	.-148    	; 0x566 <ow_reset>
     5fa:	81 11       	cpse	r24, r1
     5fc:	1f c0       	rjmp	.+62     	; 0x63c <ow_rom_search+0x50>
     5fe:	80 ef       	ldi	r24, 0xF0	; 240
     600:	e3 df       	rcall	.-58     	; 0x5c8 <ow_byte_wr>
     602:	d0 e0       	ldi	r29, 0x00	; 0
     604:	c0 e4       	ldi	r28, 0x40	; 64
     606:	88 ef       	ldi	r24, 0xF8	; 248
     608:	f8 2e       	mov	r15, r24
     60a:	fc 0e       	add	r15, r28
     60c:	81 e0       	ldi	r24, 0x01	; 1
     60e:	c7 df       	rcall	.-114    	; 0x59e <ow_bit_io>
     610:	18 2f       	mov	r17, r24
     612:	81 e0       	ldi	r24, 0x01	; 1
     614:	c4 df       	rcall	.-120    	; 0x59e <ow_bit_io>
     616:	88 23       	and	r24, r24
     618:	19 f0       	breq	.+6      	; 0x620 <ow_rom_search+0x34>
     61a:	11 23       	and	r17, r17
     61c:	39 f0       	breq	.+14     	; 0x62c <ow_rom_search+0x40>
     61e:	10 c0       	rjmp	.+32     	; 0x640 <ow_rom_search+0x54>
     620:	11 11       	cpse	r17, r1
     622:	04 c0       	rjmp	.+8      	; 0x62c <ow_rom_search+0x40>
     624:	0c 17       	cp	r16, r28
     626:	11 f0       	breq	.+4      	; 0x62c <ow_rom_search+0x40>
     628:	dc 2f       	mov	r29, r28
     62a:	11 e0       	ldi	r17, 0x01	; 1
     62c:	81 2f       	mov	r24, r17
     62e:	b7 df       	rcall	.-146    	; 0x59e <ow_bit_io>
     630:	c1 50       	subi	r28, 0x01	; 1
     632:	cf 11       	cpse	r28, r15
     634:	eb cf       	rjmp	.-42     	; 0x60c <ow_rom_search+0x20>
     636:	39 f7       	brne	.-50     	; 0x606 <ow_rom_search+0x1a>
     638:	8d 2f       	mov	r24, r29
     63a:	03 c0       	rjmp	.+6      	; 0x642 <ow_rom_search+0x56>
     63c:	8f ef       	ldi	r24, 0xFF	; 255
     63e:	01 c0       	rjmp	.+2      	; 0x642 <ow_rom_search+0x56>
     640:	8e ef       	ldi	r24, 0xFE	; 254
     642:	df 91       	pop	r29
     644:	cf 91       	pop	r28
     646:	1f 91       	pop	r17
     648:	0f 91       	pop	r16
     64a:	ff 90       	pop	r15
     64c:	08 95       	ret

0000064e <ow_command>:
     64e:	cf 93       	push	r28
     650:	c8 2f       	mov	r28, r24
     652:	89 df       	rcall	.-238    	; 0x566 <ow_reset>
     654:	8c ec       	ldi	r24, 0xCC	; 204
     656:	b8 df       	rcall	.-144    	; 0x5c8 <ow_byte_wr>
     658:	8c 2f       	mov	r24, r28
     65a:	cf 91       	pop	r28
     65c:	b5 cf       	rjmp	.-150    	; 0x5c8 <ow_byte_wr>

0000065e <DS18X20_find_sensor>:
     65e:	cf 93       	push	r28
     660:	df 93       	push	r29
     662:	ec 01       	movw	r28, r24
     664:	88 81       	ld	r24, Y
     666:	c2 df       	rcall	.-124    	; 0x5ec <ow_rom_search>
     668:	88 83       	st	Y, r24
     66a:	81 50       	subi	r24, 0x01	; 1
     66c:	8d 3f       	cpi	r24, 0xFD	; 253
     66e:	d0 f3       	brcs	.-12     	; 0x664 <DS18X20_find_sensor+0x6>
     670:	df 91       	pop	r29
     672:	cf 91       	pop	r28
     674:	08 95       	ret

00000676 <search_sensors>:
     676:	ef 92       	push	r14
     678:	ff 92       	push	r15
     67a:	1f 93       	push	r17
     67c:	cf 93       	push	r28
     67e:	df 93       	push	r29
     680:	cd b7       	in	r28, 0x3d	; 61
     682:	de b7       	in	r29, 0x3e	; 62
     684:	29 97       	sbiw	r28, 0x09	; 9
     686:	0f b6       	in	r0, 0x3f	; 63
     688:	f8 94       	cli
     68a:	de bf       	out	0x3e, r29	; 62
     68c:	0f be       	out	0x3f, r0	; 63
     68e:	cd bf       	out	0x3d, r28	; 61
     690:	8f ef       	ldi	r24, 0xFF	; 255
     692:	89 87       	std	Y+9, r24	; 0x09
     694:	87 e8       	ldi	r24, 0x87	; 135
     696:	e8 2e       	mov	r14, r24
     698:	86 e0       	ldi	r24, 0x06	; 6
     69a:	f8 2e       	mov	r15, r24
     69c:	10 e0       	ldi	r17, 0x00	; 0
     69e:	89 85       	ldd	r24, Y+9	; 0x09
     6a0:	88 23       	and	r24, r24
     6a2:	d9 f0       	breq	.+54     	; 0x6da <search_sensors+0x64>
     6a4:	15 30       	cpi	r17, 0x05	; 5
     6a6:	c9 f0       	breq	.+50     	; 0x6da <search_sensors+0x64>
     6a8:	ce 01       	movw	r24, r28
     6aa:	09 96       	adiw	r24, 0x09	; 9
     6ac:	d8 df       	rcall	.-80     	; 0x65e <DS18X20_find_sensor>
     6ae:	89 85       	ldd	r24, Y+9	; 0x09
     6b0:	8e 5f       	subi	r24, 0xFE	; 254
     6b2:	82 30       	cpi	r24, 0x02	; 2
     6b4:	90 f0       	brcs	.+36     	; 0x6da <search_sensors+0x64>
     6b6:	fe 01       	movw	r30, r28
     6b8:	31 96       	adiw	r30, 0x01	; 1
     6ba:	80 e0       	ldi	r24, 0x00	; 0
     6bc:	90 e0       	ldi	r25, 0x00	; 0
     6be:	21 91       	ld	r18, Z+
     6c0:	d7 01       	movw	r26, r14
     6c2:	a8 0f       	add	r26, r24
     6c4:	b9 1f       	adc	r27, r25
     6c6:	2c 93       	st	X, r18
     6c8:	01 96       	adiw	r24, 0x01	; 1
     6ca:	88 30       	cpi	r24, 0x08	; 8
     6cc:	91 05       	cpc	r25, r1
     6ce:	b9 f7       	brne	.-18     	; 0x6be <search_sensors+0x48>
     6d0:	1f 5f       	subi	r17, 0xFF	; 255
     6d2:	88 e0       	ldi	r24, 0x08	; 8
     6d4:	e8 0e       	add	r14, r24
     6d6:	f1 1c       	adc	r15, r1
     6d8:	e2 cf       	rjmp	.-60     	; 0x69e <search_sensors+0x28>
     6da:	81 2f       	mov	r24, r17
     6dc:	29 96       	adiw	r28, 0x09	; 9
     6de:	0f b6       	in	r0, 0x3f	; 63
     6e0:	f8 94       	cli
     6e2:	de bf       	out	0x3e, r29	; 62
     6e4:	0f be       	out	0x3f, r0	; 63
     6e6:	cd bf       	out	0x3d, r28	; 61
     6e8:	df 91       	pop	r29
     6ea:	cf 91       	pop	r28
     6ec:	1f 91       	pop	r17
     6ee:	ff 90       	pop	r15
     6f0:	ef 90       	pop	r14
     6f2:	08 95       	ret

000006f4 <DS18X20_start_meas>:
     6f4:	38 df       	rcall	.-400    	; 0x566 <ow_reset>
     6f6:	0c 9b       	sbis	0x01, 4	; 1
     6f8:	06 c0       	rjmp	.+12     	; 0x706 <DS18X20_start_meas+0x12>
     6fa:	8c ec       	ldi	r24, 0xCC	; 204
     6fc:	a8 df       	rcall	.-176    	; 0x64e <ow_command>
     6fe:	84 e4       	ldi	r24, 0x44	; 68
     700:	a6 df       	rcall	.-180    	; 0x64e <ow_command>
     702:	80 e0       	ldi	r24, 0x00	; 0
     704:	08 95       	ret
     706:	08 95       	ret

00000708 <DS18X20_read_meas_single>:
     708:	0f 93       	push	r16
     70a:	1f 93       	push	r17
     70c:	cf 93       	push	r28
     70e:	df 93       	push	r29
     710:	c0 91 8b 05 	lds	r28, 0x058B	; 0x80058b <TOUT>
     714:	d0 91 8c 05 	lds	r29, 0x058C	; 0x80058c <TOUT+0x1>
     718:	8c ec       	ldi	r24, 0xCC	; 204
     71a:	99 df       	rcall	.-206    	; 0x64e <ow_command>
     71c:	8e eb       	ldi	r24, 0xBE	; 190
     71e:	97 df       	rcall	.-210    	; 0x64e <ow_command>
     720:	63 df       	rcall	.-314    	; 0x5e8 <ow_byte_rd>
     722:	18 2f       	mov	r17, r24
     724:	61 df       	rcall	.-318    	; 0x5e8 <ow_byte_rd>
     726:	08 2f       	mov	r16, r24
     728:	1e df       	rcall	.-452    	; 0x566 <ow_reset>
     72a:	88 23       	and	r24, r24
     72c:	51 f0       	breq	.+20     	; 0x742 <DS18X20_read_meas_single+0x3a>
     72e:	80 91 45 05 	lds	r24, 0x0545	; 0x800545 <cnTT1>
     732:	8f 5f       	subi	r24, 0xFF	; 255
     734:	85 31       	cpi	r24, 0x15	; 21
     736:	08 f0       	brcs	.+2      	; 0x73a <DS18X20_read_meas_single+0x32>
     738:	89 e1       	ldi	r24, 0x19	; 25
     73a:	80 93 45 05 	sts	0x0545, r24	; 0x800545 <cnTT1>
     73e:	60 e0       	ldi	r22, 0x00	; 0
     740:	11 c0       	rjmp	.+34     	; 0x764 <DS18X20_read_meas_single+0x5c>
     742:	61 2f       	mov	r22, r17
     744:	70 e0       	ldi	r23, 0x00	; 0
     746:	70 2b       	or	r23, r16
     748:	80 e0       	ldi	r24, 0x00	; 0
     74a:	90 e0       	ldi	r25, 0x00	; 0
     74c:	0e 94 e3 1f 	call	0x3fc6	; 0x3fc6 <__floatunsisf>
     750:	20 e0       	ldi	r18, 0x00	; 0
     752:	30 e0       	ldi	r19, 0x00	; 0
     754:	40 e8       	ldi	r20, 0x80	; 128
     756:	5d e3       	ldi	r21, 0x3D	; 61
     758:	0e 94 95 20 	call	0x412a	; 0x412a <__mulsf3>
     75c:	0e 94 b7 1f 	call	0x3f6e	; 0x3f6e <__fixunssfsi>
     760:	10 92 45 05 	sts	0x0545, r1	; 0x800545 <cnTT1>
     764:	20 91 6a 05 	lds	r18, 0x056A	; 0x80056a <TAVGCN1>
     768:	80 91 72 05 	lds	r24, 0x0572	; 0x800572 <TEMP_AVG1>
     76c:	90 91 73 05 	lds	r25, 0x0573	; 0x800573 <TEMP_AVG1+0x1>
     770:	2a 30       	cpi	r18, 0x0A	; 10
     772:	50 f4       	brcc	.+20     	; 0x788 <DS18X20_read_meas_single+0x80>
     774:	86 0f       	add	r24, r22
     776:	91 1d       	adc	r25, r1
     778:	90 93 73 05 	sts	0x0573, r25	; 0x800573 <TEMP_AVG1+0x1>
     77c:	80 93 72 05 	sts	0x0572, r24	; 0x800572 <TEMP_AVG1>
     780:	2f 5f       	subi	r18, 0xFF	; 255
     782:	20 93 6a 05 	sts	0x056A, r18	; 0x80056a <TAVGCN1>
     786:	0e c0       	rjmp	.+28     	; 0x7a4 <DS18X20_read_meas_single+0x9c>
     788:	10 92 6a 05 	sts	0x056A, r1	; 0x80056a <TAVGCN1>
     78c:	6a e0       	ldi	r22, 0x0A	; 10
     78e:	70 e0       	ldi	r23, 0x00	; 0
     790:	0e 94 04 21 	call	0x4208	; 0x4208 <__udivmodhi4>
     794:	70 93 8c 05 	sts	0x058C, r23	; 0x80058c <TOUT+0x1>
     798:	60 93 8b 05 	sts	0x058B, r22	; 0x80058b <TOUT>
     79c:	10 92 73 05 	sts	0x0573, r1	; 0x800573 <TEMP_AVG1+0x1>
     7a0:	10 92 72 05 	sts	0x0572, r1	; 0x800572 <TEMP_AVG1>
     7a4:	80 91 8b 05 	lds	r24, 0x058B	; 0x80058b <TOUT>
     7a8:	90 91 8c 05 	lds	r25, 0x058C	; 0x80058c <TOUT+0x1>
     7ac:	87 39       	cpi	r24, 0x97	; 151
     7ae:	91 05       	cpc	r25, r1
     7b0:	28 f0       	brcs	.+10     	; 0x7bc <DS18X20_read_meas_single+0xb4>
     7b2:	dd 27       	eor	r29, r29
     7b4:	d0 93 8c 05 	sts	0x058C, r29	; 0x80058c <TOUT+0x1>
     7b8:	c0 93 8b 05 	sts	0x058B, r28	; 0x80058b <TOUT>
     7bc:	80 91 8b 05 	lds	r24, 0x058B	; 0x80058b <TOUT>
     7c0:	90 91 8c 05 	lds	r25, 0x058C	; 0x80058c <TOUT+0x1>
     7c4:	03 97       	sbiw	r24, 0x03	; 3
     7c6:	20 f4       	brcc	.+8      	; 0x7d0 <DS18X20_read_meas_single+0xc8>
     7c8:	10 92 8c 05 	sts	0x058C, r1	; 0x80058c <TOUT+0x1>
     7cc:	10 92 8b 05 	sts	0x058B, r1	; 0x80058b <TOUT>
     7d0:	80 e0       	ldi	r24, 0x00	; 0
     7d2:	df 91       	pop	r29
     7d4:	cf 91       	pop	r28
     7d6:	1f 91       	pop	r17
     7d8:	0f 91       	pop	r16
     7da:	08 95       	ret

000007dc <ow_reset2>:
     7dc:	1a 98       	cbi	0x03, 2	; 3
     7de:	12 9a       	sbi	0x02, 2	; 2
     7e0:	8f eb       	ldi	r24, 0xBF	; 191
     7e2:	93 e0       	ldi	r25, 0x03	; 3
     7e4:	01 97       	sbiw	r24, 0x01	; 1
     7e6:	f1 f7       	brne	.-4      	; 0x7e4 <ow_reset2+0x8>
     7e8:	00 c0       	rjmp	.+0      	; 0x7ea <ow_reset2+0xe>
     7ea:	00 00       	nop
     7ec:	9f b7       	in	r25, 0x3f	; 63
     7ee:	f8 94       	cli
     7f0:	12 98       	cbi	0x02, 2	; 2
     7f2:	e0 eb       	ldi	r30, 0xB0	; 176
     7f4:	ea 95       	dec	r30
     7f6:	f1 f7       	brne	.-4      	; 0x7f4 <ow_reset2+0x18>
     7f8:	81 b1       	in	r24, 0x01	; 1
     7fa:	9f bf       	out	0x3f, r25	; 63
     7fc:	eb e3       	ldi	r30, 0x3B	; 59
     7fe:	f3 e0       	ldi	r31, 0x03	; 3
     800:	31 97       	sbiw	r30, 0x01	; 1
     802:	f1 f7       	brne	.-4      	; 0x800 <ow_reset2+0x24>
     804:	00 c0       	rjmp	.+0      	; 0x806 <ow_reset2+0x2a>
     806:	00 00       	nop
     808:	0a 9b       	sbis	0x01, 2	; 1
     80a:	02 c0       	rjmp	.+4      	; 0x810 <ow_reset2+0x34>
     80c:	84 70       	andi	r24, 0x04	; 4
     80e:	08 95       	ret
     810:	81 e0       	ldi	r24, 0x01	; 1
     812:	08 95       	ret

00000814 <ow_bit_io2>:
     814:	9f b7       	in	r25, 0x3f	; 63
     816:	f8 94       	cli
     818:	12 9a       	sbi	0x02, 2	; 2
     81a:	22 e0       	ldi	r18, 0x02	; 2
     81c:	2a 95       	dec	r18
     81e:	f1 f7       	brne	.-4      	; 0x81c <ow_bit_io2+0x8>
     820:	00 c0       	rjmp	.+0      	; 0x822 <ow_bit_io2+0xe>
     822:	81 11       	cpse	r24, r1
     824:	12 98       	cbi	0x02, 2	; 2
     826:	25 e2       	ldi	r18, 0x25	; 37
     828:	2a 95       	dec	r18
     82a:	f1 f7       	brne	.-4      	; 0x828 <ow_bit_io2+0x14>
     82c:	00 00       	nop
     82e:	0a 9b       	sbis	0x01, 2	; 1
     830:	80 e0       	ldi	r24, 0x00	; 0
     832:	28 e7       	ldi	r18, 0x78	; 120
     834:	2a 95       	dec	r18
     836:	f1 f7       	brne	.-4      	; 0x834 <ow_bit_io2+0x20>
     838:	12 98       	cbi	0x02, 2	; 2
     83a:	9f bf       	out	0x3f, r25	; 63
     83c:	08 95       	ret

0000083e <ow_byte_wr2>:
     83e:	cf 93       	push	r28
     840:	df 93       	push	r29
     842:	c8 2f       	mov	r28, r24
     844:	d8 e0       	ldi	r29, 0x08	; 8
     846:	8c 2f       	mov	r24, r28
     848:	81 70       	andi	r24, 0x01	; 1
     84a:	e4 df       	rcall	.-56     	; 0x814 <ow_bit_io2>
     84c:	c6 95       	lsr	r28
     84e:	81 11       	cpse	r24, r1
     850:	c0 68       	ori	r28, 0x80	; 128
     852:	d1 50       	subi	r29, 0x01	; 1
     854:	c1 f7       	brne	.-16     	; 0x846 <ow_byte_wr2+0x8>
     856:	8c 2f       	mov	r24, r28
     858:	df 91       	pop	r29
     85a:	cf 91       	pop	r28
     85c:	08 95       	ret

0000085e <ow_byte_rd2>:
     85e:	8f ef       	ldi	r24, 0xFF	; 255
     860:	ee cf       	rjmp	.-36     	; 0x83e <ow_byte_wr2>

00000862 <ow_rom_search2>:
     862:	ff 92       	push	r15
     864:	0f 93       	push	r16
     866:	1f 93       	push	r17
     868:	cf 93       	push	r28
     86a:	df 93       	push	r29
     86c:	08 2f       	mov	r16, r24
     86e:	b6 df       	rcall	.-148    	; 0x7dc <ow_reset2>
     870:	81 11       	cpse	r24, r1
     872:	1f c0       	rjmp	.+62     	; 0x8b2 <ow_rom_search2+0x50>
     874:	80 ef       	ldi	r24, 0xF0	; 240
     876:	e3 df       	rcall	.-58     	; 0x83e <ow_byte_wr2>
     878:	d0 e0       	ldi	r29, 0x00	; 0
     87a:	c0 e4       	ldi	r28, 0x40	; 64
     87c:	88 ef       	ldi	r24, 0xF8	; 248
     87e:	f8 2e       	mov	r15, r24
     880:	fc 0e       	add	r15, r28
     882:	81 e0       	ldi	r24, 0x01	; 1
     884:	c7 df       	rcall	.-114    	; 0x814 <ow_bit_io2>
     886:	18 2f       	mov	r17, r24
     888:	81 e0       	ldi	r24, 0x01	; 1
     88a:	c4 df       	rcall	.-120    	; 0x814 <ow_bit_io2>
     88c:	88 23       	and	r24, r24
     88e:	19 f0       	breq	.+6      	; 0x896 <ow_rom_search2+0x34>
     890:	11 23       	and	r17, r17
     892:	39 f0       	breq	.+14     	; 0x8a2 <ow_rom_search2+0x40>
     894:	10 c0       	rjmp	.+32     	; 0x8b6 <ow_rom_search2+0x54>
     896:	11 11       	cpse	r17, r1
     898:	04 c0       	rjmp	.+8      	; 0x8a2 <ow_rom_search2+0x40>
     89a:	0c 17       	cp	r16, r28
     89c:	11 f0       	breq	.+4      	; 0x8a2 <ow_rom_search2+0x40>
     89e:	dc 2f       	mov	r29, r28
     8a0:	11 e0       	ldi	r17, 0x01	; 1
     8a2:	81 2f       	mov	r24, r17
     8a4:	7c de       	rcall	.-776    	; 0x59e <ow_bit_io>
     8a6:	c1 50       	subi	r28, 0x01	; 1
     8a8:	cf 11       	cpse	r28, r15
     8aa:	eb cf       	rjmp	.-42     	; 0x882 <ow_rom_search2+0x20>
     8ac:	39 f7       	brne	.-50     	; 0x87c <ow_rom_search2+0x1a>
     8ae:	8d 2f       	mov	r24, r29
     8b0:	03 c0       	rjmp	.+6      	; 0x8b8 <ow_rom_search2+0x56>
     8b2:	8f ef       	ldi	r24, 0xFF	; 255
     8b4:	01 c0       	rjmp	.+2      	; 0x8b8 <ow_rom_search2+0x56>
     8b6:	8e ef       	ldi	r24, 0xFE	; 254
     8b8:	df 91       	pop	r29
     8ba:	cf 91       	pop	r28
     8bc:	1f 91       	pop	r17
     8be:	0f 91       	pop	r16
     8c0:	ff 90       	pop	r15
     8c2:	08 95       	ret

000008c4 <ow_command2>:
     8c4:	cf 93       	push	r28
     8c6:	c8 2f       	mov	r28, r24
     8c8:	89 df       	rcall	.-238    	; 0x7dc <ow_reset2>
     8ca:	8c ec       	ldi	r24, 0xCC	; 204
     8cc:	b8 df       	rcall	.-144    	; 0x83e <ow_byte_wr2>
     8ce:	8c 2f       	mov	r24, r28
     8d0:	cf 91       	pop	r28
     8d2:	b5 cf       	rjmp	.-150    	; 0x83e <ow_byte_wr2>

000008d4 <DS18X20_find_sensor2>:
     8d4:	cf 93       	push	r28
     8d6:	df 93       	push	r29
     8d8:	ec 01       	movw	r28, r24
     8da:	88 81       	ld	r24, Y
     8dc:	c2 df       	rcall	.-124    	; 0x862 <ow_rom_search2>
     8de:	88 83       	st	Y, r24
     8e0:	81 50       	subi	r24, 0x01	; 1
     8e2:	8d 3f       	cpi	r24, 0xFD	; 253
     8e4:	d0 f3       	brcs	.-12     	; 0x8da <DS18X20_find_sensor2+0x6>
     8e6:	df 91       	pop	r29
     8e8:	cf 91       	pop	r28
     8ea:	08 95       	ret

000008ec <search_sensors2>:
     8ec:	ef 92       	push	r14
     8ee:	ff 92       	push	r15
     8f0:	1f 93       	push	r17
     8f2:	cf 93       	push	r28
     8f4:	df 93       	push	r29
     8f6:	cd b7       	in	r28, 0x3d	; 61
     8f8:	de b7       	in	r29, 0x3e	; 62
     8fa:	29 97       	sbiw	r28, 0x09	; 9
     8fc:	0f b6       	in	r0, 0x3f	; 63
     8fe:	f8 94       	cli
     900:	de bf       	out	0x3e, r29	; 62
     902:	0f be       	out	0x3f, r0	; 63
     904:	cd bf       	out	0x3d, r28	; 61
     906:	8f ef       	ldi	r24, 0xFF	; 255
     908:	89 87       	std	Y+9, r24	; 0x09
     90a:	87 e8       	ldi	r24, 0x87	; 135
     90c:	e8 2e       	mov	r14, r24
     90e:	86 e0       	ldi	r24, 0x06	; 6
     910:	f8 2e       	mov	r15, r24
     912:	10 e0       	ldi	r17, 0x00	; 0
     914:	89 85       	ldd	r24, Y+9	; 0x09
     916:	88 23       	and	r24, r24
     918:	d9 f0       	breq	.+54     	; 0x950 <search_sensors2+0x64>
     91a:	15 30       	cpi	r17, 0x05	; 5
     91c:	c9 f0       	breq	.+50     	; 0x950 <search_sensors2+0x64>
     91e:	ce 01       	movw	r24, r28
     920:	09 96       	adiw	r24, 0x09	; 9
     922:	d8 df       	rcall	.-80     	; 0x8d4 <DS18X20_find_sensor2>
     924:	89 85       	ldd	r24, Y+9	; 0x09
     926:	8e 5f       	subi	r24, 0xFE	; 254
     928:	82 30       	cpi	r24, 0x02	; 2
     92a:	90 f0       	brcs	.+36     	; 0x950 <search_sensors2+0x64>
     92c:	fe 01       	movw	r30, r28
     92e:	31 96       	adiw	r30, 0x01	; 1
     930:	80 e0       	ldi	r24, 0x00	; 0
     932:	90 e0       	ldi	r25, 0x00	; 0
     934:	21 91       	ld	r18, Z+
     936:	d7 01       	movw	r26, r14
     938:	a8 0f       	add	r26, r24
     93a:	b9 1f       	adc	r27, r25
     93c:	2c 93       	st	X, r18
     93e:	01 96       	adiw	r24, 0x01	; 1
     940:	88 30       	cpi	r24, 0x08	; 8
     942:	91 05       	cpc	r25, r1
     944:	b9 f7       	brne	.-18     	; 0x934 <search_sensors2+0x48>
     946:	1f 5f       	subi	r17, 0xFF	; 255
     948:	88 e0       	ldi	r24, 0x08	; 8
     94a:	e8 0e       	add	r14, r24
     94c:	f1 1c       	adc	r15, r1
     94e:	e2 cf       	rjmp	.-60     	; 0x914 <search_sensors2+0x28>
     950:	81 2f       	mov	r24, r17
     952:	29 96       	adiw	r28, 0x09	; 9
     954:	0f b6       	in	r0, 0x3f	; 63
     956:	f8 94       	cli
     958:	de bf       	out	0x3e, r29	; 62
     95a:	0f be       	out	0x3f, r0	; 63
     95c:	cd bf       	out	0x3d, r28	; 61
     95e:	df 91       	pop	r29
     960:	cf 91       	pop	r28
     962:	1f 91       	pop	r17
     964:	ff 90       	pop	r15
     966:	ef 90       	pop	r14
     968:	08 95       	ret

0000096a <DS18X20_start_meas2>:
     96a:	38 df       	rcall	.-400    	; 0x7dc <ow_reset2>
     96c:	0a 9b       	sbis	0x01, 2	; 1
     96e:	06 c0       	rjmp	.+12     	; 0x97c <DS18X20_start_meas2+0x12>
     970:	8c ec       	ldi	r24, 0xCC	; 204
     972:	a8 df       	rcall	.-176    	; 0x8c4 <ow_command2>
     974:	84 e4       	ldi	r24, 0x44	; 68
     976:	a6 df       	rcall	.-180    	; 0x8c4 <ow_command2>
     978:	80 e0       	ldi	r24, 0x00	; 0
     97a:	08 95       	ret
     97c:	08 95       	ret

0000097e <DS18X20_read_meas_single2>:
     97e:	0f 93       	push	r16
     980:	1f 93       	push	r17
     982:	cf 93       	push	r28
     984:	df 93       	push	r29
     986:	c0 91 8d 05 	lds	r28, 0x058D	; 0x80058d <TROOM>
     98a:	d0 91 8e 05 	lds	r29, 0x058E	; 0x80058e <TROOM+0x1>
     98e:	8c ec       	ldi	r24, 0xCC	; 204
     990:	99 df       	rcall	.-206    	; 0x8c4 <ow_command2>
     992:	8e eb       	ldi	r24, 0xBE	; 190
     994:	97 df       	rcall	.-210    	; 0x8c4 <ow_command2>
     996:	63 df       	rcall	.-314    	; 0x85e <ow_byte_rd2>
     998:	18 2f       	mov	r17, r24
     99a:	61 df       	rcall	.-318    	; 0x85e <ow_byte_rd2>
     99c:	08 2f       	mov	r16, r24
     99e:	1e df       	rcall	.-452    	; 0x7dc <ow_reset2>
     9a0:	88 23       	and	r24, r24
     9a2:	51 f0       	breq	.+20     	; 0x9b8 <DS18X20_read_meas_single2+0x3a>
     9a4:	80 91 44 05 	lds	r24, 0x0544	; 0x800544 <cnTT2>
     9a8:	8f 5f       	subi	r24, 0xFF	; 255
     9aa:	85 31       	cpi	r24, 0x15	; 21
     9ac:	08 f0       	brcs	.+2      	; 0x9b0 <DS18X20_read_meas_single2+0x32>
     9ae:	89 e1       	ldi	r24, 0x19	; 25
     9b0:	80 93 44 05 	sts	0x0544, r24	; 0x800544 <cnTT2>
     9b4:	60 e0       	ldi	r22, 0x00	; 0
     9b6:	11 c0       	rjmp	.+34     	; 0x9da <DS18X20_read_meas_single2+0x5c>
     9b8:	61 2f       	mov	r22, r17
     9ba:	70 e0       	ldi	r23, 0x00	; 0
     9bc:	70 2b       	or	r23, r16
     9be:	80 e0       	ldi	r24, 0x00	; 0
     9c0:	90 e0       	ldi	r25, 0x00	; 0
     9c2:	0e 94 e3 1f 	call	0x3fc6	; 0x3fc6 <__floatunsisf>
     9c6:	20 e0       	ldi	r18, 0x00	; 0
     9c8:	30 e0       	ldi	r19, 0x00	; 0
     9ca:	40 e8       	ldi	r20, 0x80	; 128
     9cc:	5d e3       	ldi	r21, 0x3D	; 61
     9ce:	0e 94 95 20 	call	0x412a	; 0x412a <__mulsf3>
     9d2:	0e 94 b7 1f 	call	0x3f6e	; 0x3f6e <__fixunssfsi>
     9d6:	10 92 44 05 	sts	0x0544, r1	; 0x800544 <cnTT2>
     9da:	20 91 6b 05 	lds	r18, 0x056B	; 0x80056b <TAVGCN2>
     9de:	80 91 74 05 	lds	r24, 0x0574	; 0x800574 <TEMP_AVG2>
     9e2:	90 91 75 05 	lds	r25, 0x0575	; 0x800575 <TEMP_AVG2+0x1>
     9e6:	2a 30       	cpi	r18, 0x0A	; 10
     9e8:	50 f4       	brcc	.+20     	; 0x9fe <DS18X20_read_meas_single2+0x80>
     9ea:	86 0f       	add	r24, r22
     9ec:	91 1d       	adc	r25, r1
     9ee:	90 93 75 05 	sts	0x0575, r25	; 0x800575 <TEMP_AVG2+0x1>
     9f2:	80 93 74 05 	sts	0x0574, r24	; 0x800574 <TEMP_AVG2>
     9f6:	2f 5f       	subi	r18, 0xFF	; 255
     9f8:	20 93 6b 05 	sts	0x056B, r18	; 0x80056b <TAVGCN2>
     9fc:	0e c0       	rjmp	.+28     	; 0xa1a <DS18X20_read_meas_single2+0x9c>
     9fe:	10 92 6b 05 	sts	0x056B, r1	; 0x80056b <TAVGCN2>
     a02:	6a e0       	ldi	r22, 0x0A	; 10
     a04:	70 e0       	ldi	r23, 0x00	; 0
     a06:	0e 94 04 21 	call	0x4208	; 0x4208 <__udivmodhi4>
     a0a:	70 93 8e 05 	sts	0x058E, r23	; 0x80058e <TROOM+0x1>
     a0e:	60 93 8d 05 	sts	0x058D, r22	; 0x80058d <TROOM>
     a12:	10 92 75 05 	sts	0x0575, r1	; 0x800575 <TEMP_AVG2+0x1>
     a16:	10 92 74 05 	sts	0x0574, r1	; 0x800574 <TEMP_AVG2>
     a1a:	80 91 8d 05 	lds	r24, 0x058D	; 0x80058d <TROOM>
     a1e:	90 91 8e 05 	lds	r25, 0x058E	; 0x80058e <TROOM+0x1>
     a22:	87 39       	cpi	r24, 0x97	; 151
     a24:	91 05       	cpc	r25, r1
     a26:	28 f0       	brcs	.+10     	; 0xa32 <DS18X20_read_meas_single2+0xb4>
     a28:	dd 27       	eor	r29, r29
     a2a:	d0 93 8e 05 	sts	0x058E, r29	; 0x80058e <TROOM+0x1>
     a2e:	c0 93 8d 05 	sts	0x058D, r28	; 0x80058d <TROOM>
     a32:	80 91 8d 05 	lds	r24, 0x058D	; 0x80058d <TROOM>
     a36:	90 91 8e 05 	lds	r25, 0x058E	; 0x80058e <TROOM+0x1>
     a3a:	03 97       	sbiw	r24, 0x03	; 3
     a3c:	20 f4       	brcc	.+8      	; 0xa46 <DS18X20_read_meas_single2+0xc8>
     a3e:	10 92 8e 05 	sts	0x058E, r1	; 0x80058e <TROOM+0x1>
     a42:	10 92 8d 05 	sts	0x058D, r1	; 0x80058d <TROOM>
     a46:	80 e0       	ldi	r24, 0x00	; 0
     a48:	df 91       	pop	r29
     a4a:	cf 91       	pop	r28
     a4c:	1f 91       	pop	r17
     a4e:	0f 91       	pop	r16
     a50:	08 95       	ret

00000a52 <twi_init>:
     a52:	e4 e7       	ldi	r30, 0x74	; 116
     a54:	f0 e0       	ldi	r31, 0x00	; 0
     a56:	10 82       	st	Z, r1
     a58:	82 e1       	ldi	r24, 0x12	; 18
     a5a:	80 93 70 00 	sts	0x0070, r24	; 0x800070 <__TEXT_REGION_LENGTH__+0x7e0070>
     a5e:	81 e0       	ldi	r24, 0x01	; 1
     a60:	80 93 71 00 	sts	0x0071, r24	; 0x800071 <__TEXT_REGION_LENGTH__+0x7e0071>
     a64:	10 92 72 00 	sts	0x0072, r1	; 0x800072 <__TEXT_REGION_LENGTH__+0x7e0072>
     a68:	84 e4       	ldi	r24, 0x44	; 68
     a6a:	80 83       	st	Z, r24
     a6c:	a8 95       	wdr
     a6e:	08 95       	ret

00000a70 <EEOpen>:
     a70:	85 e0       	ldi	r24, 0x05	; 5
     a72:	80 93 70 00 	sts	0x0070, r24	; 0x800070 <__TEXT_REGION_LENGTH__+0x7e0070>
     a76:	e1 e7       	ldi	r30, 0x71	; 113
     a78:	f0 e0       	ldi	r31, 0x00	; 0
     a7a:	80 81       	ld	r24, Z
     a7c:	8c 7f       	andi	r24, 0xFC	; 252
     a7e:	80 83       	st	Z, r24
     a80:	a8 95       	wdr
     a82:	08 95       	ret

00000a84 <EEWriteByte>:
     a84:	34 ea       	ldi	r19, 0xA4	; 164
     a86:	40 ea       	ldi	r20, 0xA0	; 160
     a88:	54 e8       	ldi	r21, 0x84	; 132
     a8a:	30 93 74 00 	sts	0x0074, r19	; 0x800074 <__TEXT_REGION_LENGTH__+0x7e0074>
     a8e:	20 91 74 00 	lds	r18, 0x0074	; 0x800074 <__TEXT_REGION_LENGTH__+0x7e0074>
     a92:	27 ff       	sbrs	r18, 7
     a94:	fc cf       	rjmp	.-8      	; 0xa8e <EEWriteByte+0xa>
     a96:	20 91 71 00 	lds	r18, 0x0071	; 0x800071 <__TEXT_REGION_LENGTH__+0x7e0071>
     a9a:	28 7f       	andi	r18, 0xF8	; 248
     a9c:	28 30       	cpi	r18, 0x08	; 8
     a9e:	11 f0       	breq	.+4      	; 0xaa4 <EEWriteByte+0x20>
     aa0:	80 e0       	ldi	r24, 0x00	; 0
     aa2:	08 95       	ret
     aa4:	40 93 73 00 	sts	0x0073, r20	; 0x800073 <__TEXT_REGION_LENGTH__+0x7e0073>
     aa8:	50 93 74 00 	sts	0x0074, r21	; 0x800074 <__TEXT_REGION_LENGTH__+0x7e0074>
     aac:	20 91 74 00 	lds	r18, 0x0074	; 0x800074 <__TEXT_REGION_LENGTH__+0x7e0074>
     ab0:	27 ff       	sbrs	r18, 7
     ab2:	fc cf       	rjmp	.-8      	; 0xaac <EEWriteByte+0x28>
     ab4:	20 91 71 00 	lds	r18, 0x0071	; 0x800071 <__TEXT_REGION_LENGTH__+0x7e0071>
     ab8:	28 7f       	andi	r18, 0xF8	; 248
     aba:	28 31       	cpi	r18, 0x18	; 24
     abc:	31 f7       	brne	.-52     	; 0xa8a <EEWriteByte+0x6>
     abe:	90 93 73 00 	sts	0x0073, r25	; 0x800073 <__TEXT_REGION_LENGTH__+0x7e0073>
     ac2:	94 e8       	ldi	r25, 0x84	; 132
     ac4:	90 93 74 00 	sts	0x0074, r25	; 0x800074 <__TEXT_REGION_LENGTH__+0x7e0074>
     ac8:	90 91 74 00 	lds	r25, 0x0074	; 0x800074 <__TEXT_REGION_LENGTH__+0x7e0074>
     acc:	97 ff       	sbrs	r25, 7
     ace:	fc cf       	rjmp	.-8      	; 0xac8 <EEWriteByte+0x44>
     ad0:	90 91 71 00 	lds	r25, 0x0071	; 0x800071 <__TEXT_REGION_LENGTH__+0x7e0071>
     ad4:	98 7f       	andi	r25, 0xF8	; 248
     ad6:	98 32       	cpi	r25, 0x28	; 40
     ad8:	19 f7       	brne	.-58     	; 0xaa0 <EEWriteByte+0x1c>
     ada:	80 93 73 00 	sts	0x0073, r24	; 0x800073 <__TEXT_REGION_LENGTH__+0x7e0073>
     ade:	84 e8       	ldi	r24, 0x84	; 132
     ae0:	80 93 74 00 	sts	0x0074, r24	; 0x800074 <__TEXT_REGION_LENGTH__+0x7e0074>
     ae4:	80 91 74 00 	lds	r24, 0x0074	; 0x800074 <__TEXT_REGION_LENGTH__+0x7e0074>
     ae8:	87 ff       	sbrs	r24, 7
     aea:	fc cf       	rjmp	.-8      	; 0xae4 <EEWriteByte+0x60>
     aec:	80 91 71 00 	lds	r24, 0x0071	; 0x800071 <__TEXT_REGION_LENGTH__+0x7e0071>
     af0:	88 7f       	andi	r24, 0xF8	; 248
     af2:	88 32       	cpi	r24, 0x28	; 40
     af4:	a9 f6       	brne	.-86     	; 0xaa0 <EEWriteByte+0x1c>
     af6:	60 93 73 00 	sts	0x0073, r22	; 0x800073 <__TEXT_REGION_LENGTH__+0x7e0073>
     afa:	84 e8       	ldi	r24, 0x84	; 132
     afc:	80 93 74 00 	sts	0x0074, r24	; 0x800074 <__TEXT_REGION_LENGTH__+0x7e0074>
     b00:	80 91 74 00 	lds	r24, 0x0074	; 0x800074 <__TEXT_REGION_LENGTH__+0x7e0074>
     b04:	87 ff       	sbrs	r24, 7
     b06:	fc cf       	rjmp	.-8      	; 0xb00 <EEWriteByte+0x7c>
     b08:	80 91 71 00 	lds	r24, 0x0071	; 0x800071 <__TEXT_REGION_LENGTH__+0x7e0071>
     b0c:	88 7f       	andi	r24, 0xF8	; 248
     b0e:	88 32       	cpi	r24, 0x28	; 40
     b10:	39 f6       	brne	.-114    	; 0xaa0 <EEWriteByte+0x1c>
     b12:	84 e9       	ldi	r24, 0x94	; 148
     b14:	80 93 74 00 	sts	0x0074, r24	; 0x800074 <__TEXT_REGION_LENGTH__+0x7e0074>
     b18:	80 91 74 00 	lds	r24, 0x0074	; 0x800074 <__TEXT_REGION_LENGTH__+0x7e0074>
     b1c:	84 fd       	sbrc	r24, 4
     b1e:	fc cf       	rjmp	.-8      	; 0xb18 <EEWriteByte+0x94>
     b20:	8f eb       	ldi	r24, 0xBF	; 191
     b22:	9d e5       	ldi	r25, 0x5D	; 93
     b24:	01 97       	sbiw	r24, 0x01	; 1
     b26:	f1 f7       	brne	.-4      	; 0xb24 <EEWriteByte+0xa0>
     b28:	00 c0       	rjmp	.+0      	; 0xb2a <EEWriteByte+0xa6>
     b2a:	00 00       	nop
     b2c:	81 e0       	ldi	r24, 0x01	; 1
     b2e:	08 95       	ret

00000b30 <EEReadByte>:
     b30:	34 ea       	ldi	r19, 0xA4	; 164
     b32:	40 ea       	ldi	r20, 0xA0	; 160
     b34:	54 e8       	ldi	r21, 0x84	; 132
     b36:	30 93 74 00 	sts	0x0074, r19	; 0x800074 <__TEXT_REGION_LENGTH__+0x7e0074>
     b3a:	20 91 74 00 	lds	r18, 0x0074	; 0x800074 <__TEXT_REGION_LENGTH__+0x7e0074>
     b3e:	27 ff       	sbrs	r18, 7
     b40:	fc cf       	rjmp	.-8      	; 0xb3a <EEReadByte+0xa>
     b42:	20 91 71 00 	lds	r18, 0x0071	; 0x800071 <__TEXT_REGION_LENGTH__+0x7e0071>
     b46:	28 7f       	andi	r18, 0xF8	; 248
     b48:	28 30       	cpi	r18, 0x08	; 8
     b4a:	11 f0       	breq	.+4      	; 0xb50 <EEReadByte+0x20>
     b4c:	80 e0       	ldi	r24, 0x00	; 0
     b4e:	08 95       	ret
     b50:	40 93 73 00 	sts	0x0073, r20	; 0x800073 <__TEXT_REGION_LENGTH__+0x7e0073>
     b54:	50 93 74 00 	sts	0x0074, r21	; 0x800074 <__TEXT_REGION_LENGTH__+0x7e0074>
     b58:	20 91 74 00 	lds	r18, 0x0074	; 0x800074 <__TEXT_REGION_LENGTH__+0x7e0074>
     b5c:	27 ff       	sbrs	r18, 7
     b5e:	fc cf       	rjmp	.-8      	; 0xb58 <EEReadByte+0x28>
     b60:	20 91 71 00 	lds	r18, 0x0071	; 0x800071 <__TEXT_REGION_LENGTH__+0x7e0071>
     b64:	28 7f       	andi	r18, 0xF8	; 248
     b66:	28 31       	cpi	r18, 0x18	; 24
     b68:	31 f7       	brne	.-52     	; 0xb36 <EEReadByte+0x6>
     b6a:	90 93 73 00 	sts	0x0073, r25	; 0x800073 <__TEXT_REGION_LENGTH__+0x7e0073>
     b6e:	94 e8       	ldi	r25, 0x84	; 132
     b70:	90 93 74 00 	sts	0x0074, r25	; 0x800074 <__TEXT_REGION_LENGTH__+0x7e0074>
     b74:	90 91 74 00 	lds	r25, 0x0074	; 0x800074 <__TEXT_REGION_LENGTH__+0x7e0074>
     b78:	97 ff       	sbrs	r25, 7
     b7a:	fc cf       	rjmp	.-8      	; 0xb74 <EEReadByte+0x44>
     b7c:	90 91 71 00 	lds	r25, 0x0071	; 0x800071 <__TEXT_REGION_LENGTH__+0x7e0071>
     b80:	98 7f       	andi	r25, 0xF8	; 248
     b82:	98 32       	cpi	r25, 0x28	; 40
     b84:	19 f7       	brne	.-58     	; 0xb4c <EEReadByte+0x1c>
     b86:	80 93 73 00 	sts	0x0073, r24	; 0x800073 <__TEXT_REGION_LENGTH__+0x7e0073>
     b8a:	84 e8       	ldi	r24, 0x84	; 132
     b8c:	80 93 74 00 	sts	0x0074, r24	; 0x800074 <__TEXT_REGION_LENGTH__+0x7e0074>
     b90:	80 91 74 00 	lds	r24, 0x0074	; 0x800074 <__TEXT_REGION_LENGTH__+0x7e0074>
     b94:	87 ff       	sbrs	r24, 7
     b96:	fc cf       	rjmp	.-8      	; 0xb90 <EEReadByte+0x60>
     b98:	80 91 71 00 	lds	r24, 0x0071	; 0x800071 <__TEXT_REGION_LENGTH__+0x7e0071>
     b9c:	88 7f       	andi	r24, 0xF8	; 248
     b9e:	88 32       	cpi	r24, 0x28	; 40
     ba0:	a9 f6       	brne	.-86     	; 0xb4c <EEReadByte+0x1c>
     ba2:	84 ea       	ldi	r24, 0xA4	; 164
     ba4:	80 93 74 00 	sts	0x0074, r24	; 0x800074 <__TEXT_REGION_LENGTH__+0x7e0074>
     ba8:	80 91 74 00 	lds	r24, 0x0074	; 0x800074 <__TEXT_REGION_LENGTH__+0x7e0074>
     bac:	87 ff       	sbrs	r24, 7
     bae:	fc cf       	rjmp	.-8      	; 0xba8 <EEReadByte+0x78>
     bb0:	80 91 71 00 	lds	r24, 0x0071	; 0x800071 <__TEXT_REGION_LENGTH__+0x7e0071>
     bb4:	88 7f       	andi	r24, 0xF8	; 248
     bb6:	80 31       	cpi	r24, 0x10	; 16
     bb8:	49 f6       	brne	.-110    	; 0xb4c <EEReadByte+0x1c>
     bba:	81 ea       	ldi	r24, 0xA1	; 161
     bbc:	80 93 73 00 	sts	0x0073, r24	; 0x800073 <__TEXT_REGION_LENGTH__+0x7e0073>
     bc0:	84 e8       	ldi	r24, 0x84	; 132
     bc2:	80 93 74 00 	sts	0x0074, r24	; 0x800074 <__TEXT_REGION_LENGTH__+0x7e0074>
     bc6:	80 91 74 00 	lds	r24, 0x0074	; 0x800074 <__TEXT_REGION_LENGTH__+0x7e0074>
     bca:	87 ff       	sbrs	r24, 7
     bcc:	fc cf       	rjmp	.-8      	; 0xbc6 <EEReadByte+0x96>
     bce:	80 91 71 00 	lds	r24, 0x0071	; 0x800071 <__TEXT_REGION_LENGTH__+0x7e0071>
     bd2:	88 7f       	andi	r24, 0xF8	; 248
     bd4:	80 34       	cpi	r24, 0x40	; 64
     bd6:	09 f0       	breq	.+2      	; 0xbda <EEReadByte+0xaa>
     bd8:	b9 cf       	rjmp	.-142    	; 0xb4c <EEReadByte+0x1c>
     bda:	84 e8       	ldi	r24, 0x84	; 132
     bdc:	80 93 74 00 	sts	0x0074, r24	; 0x800074 <__TEXT_REGION_LENGTH__+0x7e0074>
     be0:	80 91 74 00 	lds	r24, 0x0074	; 0x800074 <__TEXT_REGION_LENGTH__+0x7e0074>
     be4:	87 ff       	sbrs	r24, 7
     be6:	fc cf       	rjmp	.-8      	; 0xbe0 <EEReadByte+0xb0>
     be8:	80 91 71 00 	lds	r24, 0x0071	; 0x800071 <__TEXT_REGION_LENGTH__+0x7e0071>
     bec:	88 7f       	andi	r24, 0xF8	; 248
     bee:	88 35       	cpi	r24, 0x58	; 88
     bf0:	09 f0       	breq	.+2      	; 0xbf4 <EEReadByte+0xc4>
     bf2:	ac cf       	rjmp	.-168    	; 0xb4c <EEReadByte+0x1c>
     bf4:	80 91 73 00 	lds	r24, 0x0073	; 0x800073 <__TEXT_REGION_LENGTH__+0x7e0073>
     bf8:	94 e9       	ldi	r25, 0x94	; 148
     bfa:	90 93 74 00 	sts	0x0074, r25	; 0x800074 <__TEXT_REGION_LENGTH__+0x7e0074>
     bfe:	90 91 74 00 	lds	r25, 0x0074	; 0x800074 <__TEXT_REGION_LENGTH__+0x7e0074>
     c02:	94 fd       	sbrc	r25, 4
     c04:	fc cf       	rjmp	.-8      	; 0xbfe <EEReadByte+0xce>
     c06:	08 95       	ret

00000c08 <i2c_start>:
     c08:	84 ea       	ldi	r24, 0xA4	; 164
     c0a:	80 93 74 00 	sts	0x0074, r24	; 0x800074 <__TEXT_REGION_LENGTH__+0x7e0074>
     c0e:	80 91 74 00 	lds	r24, 0x0074	; 0x800074 <__TEXT_REGION_LENGTH__+0x7e0074>
     c12:	87 ff       	sbrs	r24, 7
     c14:	fc cf       	rjmp	.-8      	; 0xc0e <i2c_start+0x6>
     c16:	90 91 71 00 	lds	r25, 0x0071	; 0x800071 <__TEXT_REGION_LENGTH__+0x7e0071>
     c1a:	98 7f       	andi	r25, 0xF8	; 248
     c1c:	81 e0       	ldi	r24, 0x01	; 1
     c1e:	98 30       	cpi	r25, 0x08	; 8
     c20:	09 f4       	brne	.+2      	; 0xc24 <i2c_start+0x1c>
     c22:	80 e0       	ldi	r24, 0x00	; 0
     c24:	08 95       	ret

00000c26 <i2c_repeatStart>:
     c26:	84 ea       	ldi	r24, 0xA4	; 164
     c28:	80 93 74 00 	sts	0x0074, r24	; 0x800074 <__TEXT_REGION_LENGTH__+0x7e0074>
     c2c:	80 91 74 00 	lds	r24, 0x0074	; 0x800074 <__TEXT_REGION_LENGTH__+0x7e0074>
     c30:	87 ff       	sbrs	r24, 7
     c32:	fc cf       	rjmp	.-8      	; 0xc2c <i2c_repeatStart+0x6>
     c34:	90 91 71 00 	lds	r25, 0x0071	; 0x800071 <__TEXT_REGION_LENGTH__+0x7e0071>
     c38:	98 7f       	andi	r25, 0xF8	; 248
     c3a:	81 e0       	ldi	r24, 0x01	; 1
     c3c:	90 31       	cpi	r25, 0x10	; 16
     c3e:	09 f4       	brne	.+2      	; 0xc42 <i2c_repeatStart+0x1c>
     c40:	80 e0       	ldi	r24, 0x00	; 0
     c42:	08 95       	ret

00000c44 <i2c_sendAddress>:
     c44:	80 ff       	sbrs	r24, 0
     c46:	02 c0       	rjmp	.+4      	; 0xc4c <i2c_sendAddress+0x8>
     c48:	20 e4       	ldi	r18, 0x40	; 64
     c4a:	01 c0       	rjmp	.+2      	; 0xc4e <i2c_sendAddress+0xa>
     c4c:	28 e1       	ldi	r18, 0x18	; 24
     c4e:	80 93 73 00 	sts	0x0073, r24	; 0x800073 <__TEXT_REGION_LENGTH__+0x7e0073>
     c52:	84 e8       	ldi	r24, 0x84	; 132
     c54:	80 93 74 00 	sts	0x0074, r24	; 0x800074 <__TEXT_REGION_LENGTH__+0x7e0074>
     c58:	80 91 74 00 	lds	r24, 0x0074	; 0x800074 <__TEXT_REGION_LENGTH__+0x7e0074>
     c5c:	87 ff       	sbrs	r24, 7
     c5e:	fc cf       	rjmp	.-8      	; 0xc58 <i2c_sendAddress+0x14>
     c60:	90 91 71 00 	lds	r25, 0x0071	; 0x800071 <__TEXT_REGION_LENGTH__+0x7e0071>
     c64:	98 7f       	andi	r25, 0xF8	; 248
     c66:	81 e0       	ldi	r24, 0x01	; 1
     c68:	92 13       	cpse	r25, r18
     c6a:	01 c0       	rjmp	.+2      	; 0xc6e <i2c_sendAddress+0x2a>
     c6c:	80 e0       	ldi	r24, 0x00	; 0
     c6e:	08 95       	ret

00000c70 <i2c_sendData>:
     c70:	80 93 73 00 	sts	0x0073, r24	; 0x800073 <__TEXT_REGION_LENGTH__+0x7e0073>
     c74:	84 e8       	ldi	r24, 0x84	; 132
     c76:	80 93 74 00 	sts	0x0074, r24	; 0x800074 <__TEXT_REGION_LENGTH__+0x7e0074>
     c7a:	80 91 74 00 	lds	r24, 0x0074	; 0x800074 <__TEXT_REGION_LENGTH__+0x7e0074>
     c7e:	87 ff       	sbrs	r24, 7
     c80:	fc cf       	rjmp	.-8      	; 0xc7a <i2c_sendData+0xa>
     c82:	90 91 71 00 	lds	r25, 0x0071	; 0x800071 <__TEXT_REGION_LENGTH__+0x7e0071>
     c86:	98 7f       	andi	r25, 0xF8	; 248
     c88:	81 e0       	ldi	r24, 0x01	; 1
     c8a:	98 32       	cpi	r25, 0x28	; 40
     c8c:	09 f4       	brne	.+2      	; 0xc90 <i2c_sendData+0x20>
     c8e:	80 e0       	ldi	r24, 0x00	; 0
     c90:	08 95       	ret

00000c92 <i2c_receiveData_ACK>:
     c92:	84 ec       	ldi	r24, 0xC4	; 196
     c94:	80 93 74 00 	sts	0x0074, r24	; 0x800074 <__TEXT_REGION_LENGTH__+0x7e0074>
     c98:	80 91 74 00 	lds	r24, 0x0074	; 0x800074 <__TEXT_REGION_LENGTH__+0x7e0074>
     c9c:	87 ff       	sbrs	r24, 7
     c9e:	fc cf       	rjmp	.-8      	; 0xc98 <i2c_receiveData_ACK+0x6>
     ca0:	80 91 71 00 	lds	r24, 0x0071	; 0x800071 <__TEXT_REGION_LENGTH__+0x7e0071>
     ca4:	88 7f       	andi	r24, 0xF8	; 248
     ca6:	80 35       	cpi	r24, 0x50	; 80
     ca8:	19 f4       	brne	.+6      	; 0xcb0 <i2c_receiveData_ACK+0x1e>
     caa:	80 91 73 00 	lds	r24, 0x0073	; 0x800073 <__TEXT_REGION_LENGTH__+0x7e0073>
     cae:	08 95       	ret
     cb0:	8e e7       	ldi	r24, 0x7E	; 126
     cb2:	08 95       	ret

00000cb4 <i2c_receiveData_NACK>:
     cb4:	84 e8       	ldi	r24, 0x84	; 132
     cb6:	80 93 74 00 	sts	0x0074, r24	; 0x800074 <__TEXT_REGION_LENGTH__+0x7e0074>
     cba:	80 91 74 00 	lds	r24, 0x0074	; 0x800074 <__TEXT_REGION_LENGTH__+0x7e0074>
     cbe:	87 ff       	sbrs	r24, 7
     cc0:	fc cf       	rjmp	.-8      	; 0xcba <i2c_receiveData_NACK+0x6>
     cc2:	80 91 71 00 	lds	r24, 0x0071	; 0x800071 <__TEXT_REGION_LENGTH__+0x7e0071>
     cc6:	88 7f       	andi	r24, 0xF8	; 248
     cc8:	88 35       	cpi	r24, 0x58	; 88
     cca:	19 f4       	brne	.+6      	; 0xcd2 <i2c_receiveData_NACK+0x1e>
     ccc:	80 91 73 00 	lds	r24, 0x0073	; 0x800073 <__TEXT_REGION_LENGTH__+0x7e0073>
     cd0:	08 95       	ret
     cd2:	8e e7       	ldi	r24, 0x7E	; 126
     cd4:	08 95       	ret

00000cd6 <RTC_updateRegisters>:
     cd6:	e7 ec       	ldi	r30, 0xC7	; 199
     cd8:	f5 e0       	ldi	r31, 0x05	; 5
     cda:	ad e6       	ldi	r26, 0x6D	; 109
     cdc:	b6 e0       	ldi	r27, 0x06	; 6
     cde:	16 96       	adiw	r26, 0x06	; 6
     ce0:	8c 91       	ld	r24, X
     ce2:	16 97       	sbiw	r26, 0x06	; 6
     ce4:	87 70       	andi	r24, 0x07	; 7
     ce6:	20 e1       	ldi	r18, 0x10	; 16
     ce8:	82 9f       	mul	r24, r18
     cea:	c0 01       	movw	r24, r0
     cec:	11 24       	eor	r1, r1
     cee:	17 96       	adiw	r26, 0x07	; 7
     cf0:	9c 91       	ld	r25, X
     cf2:	17 97       	sbiw	r26, 0x07	; 7
     cf4:	9f 70       	andi	r25, 0x0F	; 15
     cf6:	89 2b       	or	r24, r25
     cf8:	80 83       	st	Z, r24
     cfa:	13 96       	adiw	r26, 0x03	; 3
     cfc:	8c 91       	ld	r24, X
     cfe:	13 97       	sbiw	r26, 0x03	; 3
     d00:	87 70       	andi	r24, 0x07	; 7
     d02:	20 e1       	ldi	r18, 0x10	; 16
     d04:	82 9f       	mul	r24, r18
     d06:	c0 01       	movw	r24, r0
     d08:	11 24       	eor	r1, r1
     d0a:	14 96       	adiw	r26, 0x04	; 4
     d0c:	9c 91       	ld	r25, X
     d0e:	14 97       	sbiw	r26, 0x04	; 4
     d10:	9f 70       	andi	r25, 0x0F	; 15
     d12:	89 2b       	or	r24, r25
     d14:	81 83       	std	Z+1, r24	; 0x01
     d16:	8c 91       	ld	r24, X
     d18:	83 70       	andi	r24, 0x03	; 3
     d1a:	20 e1       	ldi	r18, 0x10	; 16
     d1c:	82 9f       	mul	r24, r18
     d1e:	c0 01       	movw	r24, r0
     d20:	11 24       	eor	r1, r1
     d22:	11 96       	adiw	r26, 0x01	; 1
     d24:	9c 91       	ld	r25, X
     d26:	9f 70       	andi	r25, 0x0F	; 15
     d28:	89 2b       	or	r24, r25
     d2a:	82 83       	std	Z+2, r24	; 0x02
     d2c:	ab e7       	ldi	r26, 0x7B	; 123
     d2e:	b6 e0       	ldi	r27, 0x06	; 6
     d30:	1a 96       	adiw	r26, 0x0a	; 10
     d32:	8c 91       	ld	r24, X
     d34:	1a 97       	sbiw	r26, 0x0a	; 10
     d36:	83 83       	std	Z+3, r24	; 0x03
     d38:	8c 91       	ld	r24, X
     d3a:	83 70       	andi	r24, 0x03	; 3
     d3c:	20 e1       	ldi	r18, 0x10	; 16
     d3e:	82 9f       	mul	r24, r18
     d40:	c0 01       	movw	r24, r0
     d42:	11 24       	eor	r1, r1
     d44:	11 96       	adiw	r26, 0x01	; 1
     d46:	9c 91       	ld	r25, X
     d48:	11 97       	sbiw	r26, 0x01	; 1
     d4a:	9f 70       	andi	r25, 0x0F	; 15
     d4c:	89 2b       	or	r24, r25
     d4e:	84 83       	std	Z+4, r24	; 0x04
     d50:	13 96       	adiw	r26, 0x03	; 3
     d52:	8c 91       	ld	r24, X
     d54:	13 97       	sbiw	r26, 0x03	; 3
     d56:	28 2f       	mov	r18, r24
     d58:	21 70       	andi	r18, 0x01	; 1
     d5a:	30 e0       	ldi	r19, 0x00	; 0
     d5c:	84 e0       	ldi	r24, 0x04	; 4
     d5e:	22 0f       	add	r18, r18
     d60:	33 1f       	adc	r19, r19
     d62:	8a 95       	dec	r24
     d64:	e1 f7       	brne	.-8      	; 0xd5e <RTC_updateRegisters+0x88>
     d66:	14 96       	adiw	r26, 0x04	; 4
     d68:	8c 91       	ld	r24, X
     d6a:	14 97       	sbiw	r26, 0x04	; 4
     d6c:	8f 70       	andi	r24, 0x0F	; 15
     d6e:	28 2b       	or	r18, r24
     d70:	25 83       	std	Z+5, r18	; 0x05
     d72:	18 96       	adiw	r26, 0x08	; 8
     d74:	8c 91       	ld	r24, X
     d76:	18 97       	sbiw	r26, 0x08	; 8
     d78:	20 e1       	ldi	r18, 0x10	; 16
     d7a:	82 9f       	mul	r24, r18
     d7c:	c0 01       	movw	r24, r0
     d7e:	11 24       	eor	r1, r1
     d80:	19 96       	adiw	r26, 0x09	; 9
     d82:	9c 91       	ld	r25, X
     d84:	9f 70       	andi	r25, 0x0F	; 15
     d86:	89 2b       	or	r24, r25
     d88:	86 83       	std	Z+6, r24	; 0x06
     d8a:	08 95       	ret

00000d8c <RTC_read>:
     d8c:	0f 93       	push	r16
     d8e:	1f 93       	push	r17
     d90:	cf 93       	push	r28
     d92:	3a df       	rcall	.-396    	; 0xc08 <i2c_start>
     d94:	81 30       	cpi	r24, 0x01	; 1
     d96:	19 f1       	breq	.+70     	; 0xdde <RTC_read+0x52>
     d98:	80 ed       	ldi	r24, 0xD0	; 208
     d9a:	54 df       	rcall	.-344    	; 0xc44 <i2c_sendAddress>
     d9c:	81 30       	cpi	r24, 0x01	; 1
     d9e:	f9 f0       	breq	.+62     	; 0xdde <RTC_read+0x52>
     da0:	80 e0       	ldi	r24, 0x00	; 0
     da2:	66 df       	rcall	.-308    	; 0xc70 <i2c_sendData>
     da4:	81 30       	cpi	r24, 0x01	; 1
     da6:	d9 f0       	breq	.+54     	; 0xdde <RTC_read+0x52>
     da8:	3e df       	rcall	.-388    	; 0xc26 <i2c_repeatStart>
     daa:	81 30       	cpi	r24, 0x01	; 1
     dac:	c1 f0       	breq	.+48     	; 0xdde <RTC_read+0x52>
     dae:	81 ed       	ldi	r24, 0xD1	; 209
     db0:	49 df       	rcall	.-366    	; 0xc44 <i2c_sendAddress>
     db2:	81 30       	cpi	r24, 0x01	; 1
     db4:	a1 f0       	breq	.+40     	; 0xdde <RTC_read+0x52>
     db6:	07 ec       	ldi	r16, 0xC7	; 199
     db8:	15 e0       	ldi	r17, 0x05	; 5
     dba:	c0 e0       	ldi	r28, 0x00	; 0
     dbc:	6a df       	rcall	.-300    	; 0xc92 <i2c_receiveData_ACK>
     dbe:	8e 37       	cpi	r24, 0x7E	; 126
     dc0:	19 f4       	brne	.+6      	; 0xdc8 <RTC_read+0x3c>
     dc2:	80 e8       	ldi	r24, 0x80	; 128
     dc4:	bb d9       	rcall	.-3210   	; 0x13c <lcdControlWrite>
     dc6:	0b c0       	rjmp	.+22     	; 0xdde <RTC_read+0x52>
     dc8:	f8 01       	movw	r30, r16
     dca:	81 93       	st	Z+, r24
     dcc:	8f 01       	movw	r16, r30
     dce:	cf 5f       	subi	r28, 0xFF	; 255
     dd0:	c6 30       	cpi	r28, 0x06	; 6
     dd2:	a1 f7       	brne	.-24     	; 0xdbc <RTC_read+0x30>
     dd4:	6f df       	rcall	.-290    	; 0xcb4 <i2c_receiveData_NACK>
     dd6:	8e 37       	cpi	r24, 0x7E	; 126
     dd8:	a1 f3       	breq	.-24     	; 0xdc2 <RTC_read+0x36>
     dda:	80 93 cd 05 	sts	0x05CD, r24	; 0x8005cd <rtc_register+0x6>
     dde:	84 e9       	ldi	r24, 0x94	; 148
     de0:	80 93 74 00 	sts	0x0074, r24	; 0x800074 <__TEXT_REGION_LENGTH__+0x7e0074>
     de4:	cf 91       	pop	r28
     de6:	1f 91       	pop	r17
     de8:	0f 91       	pop	r16
     dea:	08 95       	ret

00000dec <RTC_getTime>:
     dec:	cf df       	rcall	.-98     	; 0xd8c <RTC_read>
     dee:	a7 ec       	ldi	r26, 0xC7	; 199
     df0:	b5 e0       	ldi	r27, 0x05	; 5
     df2:	8c 91       	ld	r24, X
     df4:	ed e6       	ldi	r30, 0x6D	; 109
     df6:	f6 e0       	ldi	r31, 0x06	; 6
     df8:	98 2f       	mov	r25, r24
     dfa:	9f 70       	andi	r25, 0x0F	; 15
     dfc:	90 63       	ori	r25, 0x30	; 48
     dfe:	97 83       	std	Z+7, r25	; 0x07
     e00:	80 77       	andi	r24, 0x70	; 112
     e02:	82 95       	swap	r24
     e04:	8f 70       	andi	r24, 0x0F	; 15
     e06:	80 63       	ori	r24, 0x30	; 48
     e08:	86 83       	std	Z+6, r24	; 0x06
     e0a:	2a e3       	ldi	r18, 0x3A	; 58
     e0c:	25 83       	std	Z+5, r18	; 0x05
     e0e:	11 96       	adiw	r26, 0x01	; 1
     e10:	8c 91       	ld	r24, X
     e12:	11 97       	sbiw	r26, 0x01	; 1
     e14:	98 2f       	mov	r25, r24
     e16:	9f 70       	andi	r25, 0x0F	; 15
     e18:	90 63       	ori	r25, 0x30	; 48
     e1a:	94 83       	std	Z+4, r25	; 0x04
     e1c:	80 77       	andi	r24, 0x70	; 112
     e1e:	82 95       	swap	r24
     e20:	8f 70       	andi	r24, 0x0F	; 15
     e22:	80 63       	ori	r24, 0x30	; 48
     e24:	83 83       	std	Z+3, r24	; 0x03
     e26:	22 83       	std	Z+2, r18	; 0x02
     e28:	12 96       	adiw	r26, 0x02	; 2
     e2a:	8c 91       	ld	r24, X
     e2c:	98 2f       	mov	r25, r24
     e2e:	9f 70       	andi	r25, 0x0F	; 15
     e30:	90 63       	ori	r25, 0x30	; 48
     e32:	91 83       	std	Z+1, r25	; 0x01
     e34:	80 73       	andi	r24, 0x30	; 48
     e36:	82 95       	swap	r24
     e38:	8f 70       	andi	r24, 0x0F	; 15
     e3a:	80 63       	ori	r24, 0x30	; 48
     e3c:	80 83       	st	Z, r24
     e3e:	08 95       	ret

00000e40 <RTC_getDate>:
     e40:	a5 df       	rcall	.-182    	; 0xd8c <RTC_read>
     e42:	eb e7       	ldi	r30, 0x7B	; 123
     e44:	f6 e0       	ldi	r31, 0x06	; 6
     e46:	80 e2       	ldi	r24, 0x20	; 32
     e48:	83 87       	std	Z+11, r24	; 0x0b
     e4a:	a7 ec       	ldi	r26, 0xC7	; 199
     e4c:	b5 e0       	ldi	r27, 0x05	; 5
     e4e:	16 96       	adiw	r26, 0x06	; 6
     e50:	8c 91       	ld	r24, X
     e52:	16 97       	sbiw	r26, 0x06	; 6
     e54:	98 2f       	mov	r25, r24
     e56:	9f 70       	andi	r25, 0x0F	; 15
     e58:	90 63       	ori	r25, 0x30	; 48
     e5a:	91 87       	std	Z+9, r25	; 0x09
     e5c:	82 95       	swap	r24
     e5e:	8f 70       	andi	r24, 0x0F	; 15
     e60:	80 63       	ori	r24, 0x30	; 48
     e62:	80 87       	std	Z+8, r24	; 0x08
     e64:	80 e3       	ldi	r24, 0x30	; 48
     e66:	87 83       	std	Z+7, r24	; 0x07
     e68:	82 e3       	ldi	r24, 0x32	; 50
     e6a:	86 83       	std	Z+6, r24	; 0x06
     e6c:	2f e2       	ldi	r18, 0x2F	; 47
     e6e:	25 83       	std	Z+5, r18	; 0x05
     e70:	15 96       	adiw	r26, 0x05	; 5
     e72:	8c 91       	ld	r24, X
     e74:	15 97       	sbiw	r26, 0x05	; 5
     e76:	98 2f       	mov	r25, r24
     e78:	9f 70       	andi	r25, 0x0F	; 15
     e7a:	90 63       	ori	r25, 0x30	; 48
     e7c:	94 83       	std	Z+4, r25	; 0x04
     e7e:	82 95       	swap	r24
     e80:	81 70       	andi	r24, 0x01	; 1
     e82:	80 63       	ori	r24, 0x30	; 48
     e84:	83 83       	std	Z+3, r24	; 0x03
     e86:	22 83       	std	Z+2, r18	; 0x02
     e88:	14 96       	adiw	r26, 0x04	; 4
     e8a:	8c 91       	ld	r24, X
     e8c:	98 2f       	mov	r25, r24
     e8e:	9f 70       	andi	r25, 0x0F	; 15
     e90:	90 63       	ori	r25, 0x30	; 48
     e92:	91 83       	std	Z+1, r25	; 0x01
     e94:	80 73       	andi	r24, 0x30	; 48
     e96:	82 95       	swap	r24
     e98:	8f 70       	andi	r24, 0x0F	; 15
     e9a:	80 63       	ori	r24, 0x30	; 48
     e9c:	80 83       	st	Z, r24
     e9e:	08 95       	ret

00000ea0 <DATE_TIME_Conversion>:
     ea0:	d8 dd       	rcall	.-1104   	; 0xa52 <twi_init>
     ea2:	a4 df       	rcall	.-184    	; 0xdec <RTC_getTime>
     ea4:	ed e6       	ldi	r30, 0x6D	; 109
     ea6:	f6 e0       	ldi	r31, 0x06	; 6
     ea8:	86 81       	ldd	r24, Z+6	; 0x06
     eaa:	88 0f       	add	r24, r24
     eac:	80 56       	subi	r24, 0x60	; 96
     eae:	98 2f       	mov	r25, r24
     eb0:	99 0f       	add	r25, r25
     eb2:	99 0f       	add	r25, r25
     eb4:	89 0f       	add	r24, r25
     eb6:	97 81       	ldd	r25, Z+7	; 0x07
     eb8:	90 53       	subi	r25, 0x30	; 48
     eba:	89 0f       	add	r24, r25
     ebc:	80 93 0f 05 	sts	0x050F, r24	; 0x80050f <SECin>
     ec0:	83 81       	ldd	r24, Z+3	; 0x03
     ec2:	88 0f       	add	r24, r24
     ec4:	80 56       	subi	r24, 0x60	; 96
     ec6:	98 2f       	mov	r25, r24
     ec8:	99 0f       	add	r25, r25
     eca:	99 0f       	add	r25, r25
     ecc:	89 0f       	add	r24, r25
     ece:	94 81       	ldd	r25, Z+4	; 0x04
     ed0:	90 53       	subi	r25, 0x30	; 48
     ed2:	89 0f       	add	r24, r25
     ed4:	80 93 0e 05 	sts	0x050E, r24	; 0x80050e <MINin>
     ed8:	80 81       	ld	r24, Z
     eda:	88 0f       	add	r24, r24
     edc:	80 56       	subi	r24, 0x60	; 96
     ede:	98 2f       	mov	r25, r24
     ee0:	99 0f       	add	r25, r25
     ee2:	99 0f       	add	r25, r25
     ee4:	89 0f       	add	r24, r25
     ee6:	91 81       	ldd	r25, Z+1	; 0x01
     ee8:	90 53       	subi	r25, 0x30	; 48
     eea:	89 0f       	add	r24, r25
     eec:	80 93 0d 05 	sts	0x050D, r24	; 0x80050d <HOURin>
     ef0:	a7 df       	rcall	.-178    	; 0xe40 <RTC_getDate>
     ef2:	eb e7       	ldi	r30, 0x7B	; 123
     ef4:	f6 e0       	ldi	r31, 0x06	; 6
     ef6:	80 81       	ld	r24, Z
     ef8:	88 0f       	add	r24, r24
     efa:	80 56       	subi	r24, 0x60	; 96
     efc:	98 2f       	mov	r25, r24
     efe:	99 0f       	add	r25, r25
     f00:	99 0f       	add	r25, r25
     f02:	89 0f       	add	r24, r25
     f04:	91 81       	ldd	r25, Z+1	; 0x01
     f06:	90 53       	subi	r25, 0x30	; 48
     f08:	89 0f       	add	r24, r25
     f0a:	80 93 0b 05 	sts	0x050B, r24	; 0x80050b <DATEin>
     f0e:	83 81       	ldd	r24, Z+3	; 0x03
     f10:	88 0f       	add	r24, r24
     f12:	80 56       	subi	r24, 0x60	; 96
     f14:	98 2f       	mov	r25, r24
     f16:	99 0f       	add	r25, r25
     f18:	99 0f       	add	r25, r25
     f1a:	89 0f       	add	r24, r25
     f1c:	94 81       	ldd	r25, Z+4	; 0x04
     f1e:	90 53       	subi	r25, 0x30	; 48
     f20:	89 0f       	add	r24, r25
     f22:	80 93 0c 05 	sts	0x050C, r24	; 0x80050c <MONTHin>
     f26:	80 85       	ldd	r24, Z+8	; 0x08
     f28:	88 0f       	add	r24, r24
     f2a:	80 56       	subi	r24, 0x60	; 96
     f2c:	98 2f       	mov	r25, r24
     f2e:	99 0f       	add	r25, r25
     f30:	99 0f       	add	r25, r25
     f32:	89 0f       	add	r24, r25
     f34:	91 85       	ldd	r25, Z+9	; 0x09
     f36:	90 53       	subi	r25, 0x30	; 48
     f38:	89 0f       	add	r24, r25
     f3a:	80 93 0a 05 	sts	0x050A, r24	; 0x80050a <YEARin>
     f3e:	08 95       	ret

00000f40 <RTC_writeTime>:
     f40:	cf 93       	push	r28
     f42:	df 93       	push	r29
     f44:	61 de       	rcall	.-830    	; 0xc08 <i2c_start>
     f46:	81 30       	cpi	r24, 0x01	; 1
     f48:	b9 f0       	breq	.+46     	; 0xf78 <RTC_writeTime+0x38>
     f4a:	80 ed       	ldi	r24, 0xD0	; 208
     f4c:	7b de       	rcall	.-778    	; 0xc44 <i2c_sendAddress>
     f4e:	81 30       	cpi	r24, 0x01	; 1
     f50:	99 f0       	breq	.+38     	; 0xf78 <RTC_writeTime+0x38>
     f52:	80 e0       	ldi	r24, 0x00	; 0
     f54:	8d de       	rcall	.-742    	; 0xc70 <i2c_sendData>
     f56:	81 30       	cpi	r24, 0x01	; 1
     f58:	79 f0       	breq	.+30     	; 0xf78 <RTC_writeTime+0x38>
     f5a:	c7 ec       	ldi	r28, 0xC7	; 199
     f5c:	d5 e0       	ldi	r29, 0x05	; 5
     f5e:	89 91       	ld	r24, Y+
     f60:	87 de       	rcall	.-754    	; 0xc70 <i2c_sendData>
     f62:	81 30       	cpi	r24, 0x01	; 1
     f64:	49 f0       	breq	.+18     	; 0xf78 <RTC_writeTime+0x38>
     f66:	85 e0       	ldi	r24, 0x05	; 5
     f68:	ca 3c       	cpi	r28, 0xCA	; 202
     f6a:	d8 07       	cpc	r29, r24
     f6c:	c1 f7       	brne	.-16     	; 0xf5e <RTC_writeTime+0x1e>
     f6e:	84 e9       	ldi	r24, 0x94	; 148
     f70:	80 93 74 00 	sts	0x0074, r24	; 0x800074 <__TEXT_REGION_LENGTH__+0x7e0074>
     f74:	80 e0       	ldi	r24, 0x00	; 0
     f76:	04 c0       	rjmp	.+8      	; 0xf80 <RTC_writeTime+0x40>
     f78:	84 e9       	ldi	r24, 0x94	; 148
     f7a:	80 93 74 00 	sts	0x0074, r24	; 0x800074 <__TEXT_REGION_LENGTH__+0x7e0074>
     f7e:	81 e0       	ldi	r24, 0x01	; 1
     f80:	df 91       	pop	r29
     f82:	cf 91       	pop	r28
     f84:	08 95       	ret

00000f86 <RTC_writeDate>:
     f86:	cf 93       	push	r28
     f88:	df 93       	push	r29
     f8a:	3e de       	rcall	.-900    	; 0xc08 <i2c_start>
     f8c:	81 30       	cpi	r24, 0x01	; 1
     f8e:	71 f0       	breq	.+28     	; 0xfac <RTC_writeDate+0x26>
     f90:	80 ed       	ldi	r24, 0xD0	; 208
     f92:	58 de       	rcall	.-848    	; 0xc44 <i2c_sendAddress>
     f94:	81 30       	cpi	r24, 0x01	; 1
     f96:	51 f0       	breq	.+20     	; 0xfac <RTC_writeDate+0x26>
     f98:	83 e0       	ldi	r24, 0x03	; 3
     f9a:	6a de       	rcall	.-812    	; 0xc70 <i2c_sendData>
     f9c:	81 30       	cpi	r24, 0x01	; 1
     f9e:	31 f0       	breq	.+12     	; 0xfac <RTC_writeDate+0x26>
     fa0:	ca ec       	ldi	r28, 0xCA	; 202
     fa2:	d5 e0       	ldi	r29, 0x05	; 5
     fa4:	89 91       	ld	r24, Y+
     fa6:	64 de       	rcall	.-824    	; 0xc70 <i2c_sendData>
     fa8:	81 30       	cpi	r24, 0x01	; 1
     faa:	39 f4       	brne	.+14     	; 0xfba <RTC_writeDate+0x34>
     fac:	80 e8       	ldi	r24, 0x80	; 128
     fae:	c6 d8       	rcall	.-3700   	; 0x13c <lcdControlWrite>
     fb0:	84 e9       	ldi	r24, 0x94	; 148
     fb2:	80 93 74 00 	sts	0x0074, r24	; 0x800074 <__TEXT_REGION_LENGTH__+0x7e0074>
     fb6:	81 e0       	ldi	r24, 0x01	; 1
     fb8:	08 c0       	rjmp	.+16     	; 0xfca <RTC_writeDate+0x44>
     fba:	85 e0       	ldi	r24, 0x05	; 5
     fbc:	ce 3c       	cpi	r28, 0xCE	; 206
     fbe:	d8 07       	cpc	r29, r24
     fc0:	89 f7       	brne	.-30     	; 0xfa4 <RTC_writeDate+0x1e>
     fc2:	84 e9       	ldi	r24, 0x94	; 148
     fc4:	80 93 74 00 	sts	0x0074, r24	; 0x800074 <__TEXT_REGION_LENGTH__+0x7e0074>
     fc8:	80 e0       	ldi	r24, 0x00	; 0
     fca:	df 91       	pop	r29
     fcc:	cf 91       	pop	r28
     fce:	08 95       	ret

00000fd0 <update_time>:
     fd0:	82 de       	rcall	.-764    	; 0xcd6 <RTC_updateRegisters>
     fd2:	b6 df       	rcall	.-148    	; 0xf40 <RTC_writeTime>
     fd4:	48 d9       	rcall	.-3440   	; 0x266 <lcdClear>
     fd6:	80 e8       	ldi	r24, 0x80	; 128
     fd8:	b1 c8       	rjmp	.-3742   	; 0x13c <lcdControlWrite>

00000fda <convert_func_Time>:
     fda:	0f 93       	push	r16
     fdc:	1f 93       	push	r17
     fde:	cf 93       	push	r28
     fe0:	df 93       	push	r29
     fe2:	8b 01       	movw	r16, r22
     fe4:	ea 01       	movw	r28, r20
     fe6:	ed e6       	ldi	r30, 0x6D	; 109
     fe8:	f6 e0       	ldi	r31, 0x06	; 6
     fea:	2a e0       	ldi	r18, 0x0A	; 10
     fec:	30 e0       	ldi	r19, 0x00	; 0
     fee:	b9 01       	movw	r22, r18
     ff0:	0e 94 04 21 	call	0x4208	; 0x4208 <__udivmodhi4>
     ff4:	60 5d       	subi	r22, 0xD0	; 208
     ff6:	60 83       	st	Z, r22
     ff8:	80 5d       	subi	r24, 0xD0	; 208
     ffa:	81 83       	std	Z+1, r24	; 0x01
     ffc:	4a e3       	ldi	r20, 0x3A	; 58
     ffe:	42 83       	std	Z+2, r20	; 0x02
    1000:	c8 01       	movw	r24, r16
    1002:	b9 01       	movw	r22, r18
    1004:	0e 94 04 21 	call	0x4208	; 0x4208 <__udivmodhi4>
    1008:	60 5d       	subi	r22, 0xD0	; 208
    100a:	63 83       	std	Z+3, r22	; 0x03
    100c:	80 5d       	subi	r24, 0xD0	; 208
    100e:	84 83       	std	Z+4, r24	; 0x04
    1010:	45 83       	std	Z+5, r20	; 0x05
    1012:	ce 01       	movw	r24, r28
    1014:	b9 01       	movw	r22, r18
    1016:	0e 94 04 21 	call	0x4208	; 0x4208 <__udivmodhi4>
    101a:	60 5d       	subi	r22, 0xD0	; 208
    101c:	66 83       	std	Z+6, r22	; 0x06
    101e:	80 5d       	subi	r24, 0xD0	; 208
    1020:	87 83       	std	Z+7, r24	; 0x07
    1022:	df 91       	pop	r29
    1024:	cf 91       	pop	r28
    1026:	1f 91       	pop	r17
    1028:	0f 91       	pop	r16
    102a:	08 95       	ret

0000102c <update_Date>:
    102c:	54 de       	rcall	.-856    	; 0xcd6 <RTC_updateRegisters>
    102e:	ab df       	rcall	.-170    	; 0xf86 <RTC_writeDate>
    1030:	1a d9       	rcall	.-3532   	; 0x266 <lcdClear>
    1032:	80 e8       	ldi	r24, 0x80	; 128
    1034:	83 c8       	rjmp	.-3834   	; 0x13c <lcdControlWrite>

00001036 <convert_func_Date>:
    1036:	0f 93       	push	r16
    1038:	1f 93       	push	r17
    103a:	cf 93       	push	r28
    103c:	df 93       	push	r29
    103e:	8b 01       	movw	r16, r22
    1040:	ea 01       	movw	r28, r20
    1042:	eb e7       	ldi	r30, 0x7B	; 123
    1044:	f6 e0       	ldi	r31, 0x06	; 6
    1046:	2a e0       	ldi	r18, 0x0A	; 10
    1048:	30 e0       	ldi	r19, 0x00	; 0
    104a:	b9 01       	movw	r22, r18
    104c:	0e 94 04 21 	call	0x4208	; 0x4208 <__udivmodhi4>
    1050:	60 5d       	subi	r22, 0xD0	; 208
    1052:	60 83       	st	Z, r22
    1054:	80 5d       	subi	r24, 0xD0	; 208
    1056:	81 83       	std	Z+1, r24	; 0x01
    1058:	4f e2       	ldi	r20, 0x2F	; 47
    105a:	42 83       	std	Z+2, r20	; 0x02
    105c:	c8 01       	movw	r24, r16
    105e:	b9 01       	movw	r22, r18
    1060:	0e 94 04 21 	call	0x4208	; 0x4208 <__udivmodhi4>
    1064:	60 5d       	subi	r22, 0xD0	; 208
    1066:	63 83       	std	Z+3, r22	; 0x03
    1068:	80 5d       	subi	r24, 0xD0	; 208
    106a:	84 83       	std	Z+4, r24	; 0x04
    106c:	45 83       	std	Z+5, r20	; 0x05
    106e:	82 e3       	ldi	r24, 0x32	; 50
    1070:	86 83       	std	Z+6, r24	; 0x06
    1072:	80 e3       	ldi	r24, 0x30	; 48
    1074:	87 83       	std	Z+7, r24	; 0x07
    1076:	ce 01       	movw	r24, r28
    1078:	b9 01       	movw	r22, r18
    107a:	0e 94 04 21 	call	0x4208	; 0x4208 <__udivmodhi4>
    107e:	60 5d       	subi	r22, 0xD0	; 208
    1080:	60 87       	std	Z+8, r22	; 0x08
    1082:	80 5d       	subi	r24, 0xD0	; 208
    1084:	81 87       	std	Z+9, r24	; 0x09
    1086:	df 91       	pop	r29
    1088:	cf 91       	pop	r28
    108a:	1f 91       	pop	r17
    108c:	0f 91       	pop	r16
    108e:	08 95       	ret

00001090 <USART_transmit>:
    1090:	5d 9b       	sbis	0x0b, 5	; 11
    1092:	fe cf       	rjmp	.-4      	; 0x1090 <USART_transmit>
    1094:	8c b9       	out	0x0c, r24	; 12
    1096:	08 95       	ret

00001098 <USART_TransmitString>:
    1098:	0f 93       	push	r16
    109a:	1f 93       	push	r17
    109c:	cf 93       	push	r28
    109e:	df 93       	push	r29
    10a0:	fc 01       	movw	r30, r24
    10a2:	01 90       	ld	r0, Z+
    10a4:	00 20       	and	r0, r0
    10a6:	e9 f7       	brne	.-6      	; 0x10a2 <USART_TransmitString+0xa>
    10a8:	31 97       	sbiw	r30, 0x01	; 1
    10aa:	ce 2f       	mov	r28, r30
    10ac:	c8 1b       	sub	r28, r24
    10ae:	d8 2f       	mov	r29, r24
    10b0:	8c 01       	movw	r16, r24
    10b2:	80 2f       	mov	r24, r16
    10b4:	8d 1b       	sub	r24, r29
    10b6:	8c 17       	cp	r24, r28
    10b8:	28 f4       	brcc	.+10     	; 0x10c4 <USART_TransmitString+0x2c>
    10ba:	f8 01       	movw	r30, r16
    10bc:	81 91       	ld	r24, Z+
    10be:	8f 01       	movw	r16, r30
    10c0:	e7 df       	rcall	.-50     	; 0x1090 <USART_transmit>
    10c2:	f7 cf       	rjmp	.-18     	; 0x10b2 <USART_TransmitString+0x1a>
    10c4:	df 91       	pop	r29
    10c6:	cf 91       	pop	r28
    10c8:	1f 91       	pop	r17
    10ca:	0f 91       	pop	r16
    10cc:	08 95       	ret

000010ce <USART_Init>:
    10ce:	90 93 90 00 	sts	0x0090, r25	; 0x800090 <__TEXT_REGION_LENGTH__+0x7e0090>
    10d2:	89 b9       	out	0x09, r24	; 9
    10d4:	88 e0       	ldi	r24, 0x08	; 8
    10d6:	8a b9       	out	0x0a, r24	; 10
    10d8:	86 e0       	ldi	r24, 0x06	; 6
    10da:	80 93 95 00 	sts	0x0095, r24	; 0x800095 <__TEXT_REGION_LENGTH__+0x7e0095>
    10de:	11 9a       	sbi	0x02, 1	; 2
    10e0:	08 95       	ret

000010e2 <disp_int_onPC>:
    10e2:	4f 92       	push	r4
    10e4:	5f 92       	push	r5
    10e6:	6f 92       	push	r6
    10e8:	7f 92       	push	r7
    10ea:	8f 92       	push	r8
    10ec:	9f 92       	push	r9
    10ee:	af 92       	push	r10
    10f0:	bf 92       	push	r11
    10f2:	cf 92       	push	r12
    10f4:	df 92       	push	r13
    10f6:	ef 92       	push	r14
    10f8:	ff 92       	push	r15
    10fa:	0f 93       	push	r16
    10fc:	1f 93       	push	r17
    10fe:	cf 93       	push	r28
    1100:	df 93       	push	r29
    1102:	cd b7       	in	r28, 0x3d	; 61
    1104:	de b7       	in	r29, 0x3e	; 62
    1106:	2a 97       	sbiw	r28, 0x0a	; 10
    1108:	0f b6       	in	r0, 0x3f	; 63
    110a:	f8 94       	cli
    110c:	de bf       	out	0x3e, r29	; 62
    110e:	0f be       	out	0x3f, r0	; 63
    1110:	cd bf       	out	0x3d, r28	; 61
    1112:	5c 01       	movw	r10, r24
    1114:	80 e3       	ldi	r24, 0x30	; 48
    1116:	89 83       	std	Y+1, r24	; 0x01
    1118:	8a 83       	std	Y+2, r24	; 0x02
    111a:	8b 83       	std	Y+3, r24	; 0x03
    111c:	8c 83       	std	Y+4, r24	; 0x04
    111e:	8d 83       	std	Y+5, r24	; 0x05
    1120:	8e 83       	std	Y+6, r24	; 0x06
    1122:	ce 01       	movw	r24, r28
    1124:	01 96       	adiw	r24, 0x01	; 1
    1126:	7c 01       	movw	r14, r24
    1128:	a1 14       	cp	r10, r1
    112a:	b1 04       	cpc	r11, r1
    112c:	29 f4       	brne	.+10     	; 0x1138 <__stack+0x39>
    112e:	80 e3       	ldi	r24, 0x30	; 48
    1130:	af df       	rcall	.-162    	; 0x1090 <USART_transmit>
    1132:	00 e0       	ldi	r16, 0x00	; 0
    1134:	10 e0       	ldi	r17, 0x00	; 0
    1136:	25 c0       	rjmp	.+74     	; 0x1182 <__stack+0x83>
    1138:	3c 01       	movw	r6, r24
    113a:	65 01       	movw	r12, r10
    113c:	00 e0       	ldi	r16, 0x00	; 0
    113e:	10 e0       	ldi	r17, 0x00	; 0
    1140:	8a e0       	ldi	r24, 0x0A	; 10
    1142:	88 2e       	mov	r8, r24
    1144:	91 2c       	mov	r9, r1
    1146:	c6 01       	movw	r24, r12
    1148:	b4 01       	movw	r22, r8
    114a:	0e 94 04 21 	call	0x4208	; 0x4208 <__udivmodhi4>
    114e:	2b 01       	movw	r4, r22
    1150:	bc 01       	movw	r22, r24
    1152:	80 e0       	ldi	r24, 0x00	; 0
    1154:	90 e0       	ldi	r25, 0x00	; 0
    1156:	0e 94 e3 1f 	call	0x3fc6	; 0x3fc6 <__floatunsisf>
    115a:	62 01       	movw	r12, r4
    115c:	20 e0       	ldi	r18, 0x00	; 0
    115e:	30 e0       	ldi	r19, 0x00	; 0
    1160:	40 e4       	ldi	r20, 0x40	; 64
    1162:	52 e4       	ldi	r21, 0x42	; 66
    1164:	0e 94 e2 1e 	call	0x3dc4	; 0x3dc4 <__addsf3>
    1168:	0e 94 b2 1f 	call	0x3f64	; 0x3f64 <__fixsfsi>
    116c:	f3 01       	movw	r30, r6
    116e:	61 93       	st	Z+, r22
    1170:	3f 01       	movw	r6, r30
    1172:	0f 5f       	subi	r16, 0xFF	; 255
    1174:	1f 4f       	sbci	r17, 0xFF	; 255
    1176:	45 28       	or	r4, r5
    1178:	31 f7       	brne	.-52     	; 0x1146 <__stack+0x47>
    117a:	fa e0       	ldi	r31, 0x0A	; 10
    117c:	af 16       	cp	r10, r31
    117e:	b1 04       	cpc	r11, r1
    1180:	60 f4       	brcc	.+24     	; 0x119a <__stack+0x9b>
    1182:	80 e3       	ldi	r24, 0x30	; 48
    1184:	85 df       	rcall	.-246    	; 0x1090 <USART_transmit>
    1186:	0e 0d       	add	r16, r14
    1188:	1f 1d       	adc	r17, r15
    118a:	0e 15       	cp	r16, r14
    118c:	1f 05       	cpc	r17, r15
    118e:	79 f0       	breq	.+30     	; 0x11ae <__stack+0xaf>
    1190:	f8 01       	movw	r30, r16
    1192:	82 91       	ld	r24, -Z
    1194:	8f 01       	movw	r16, r30
    1196:	7c df       	rcall	.-264    	; 0x1090 <USART_transmit>
    1198:	f8 cf       	rjmp	.-16     	; 0x118a <__stack+0x8b>
    119a:	0e 0d       	add	r16, r14
    119c:	1f 1d       	adc	r17, r15
    119e:	0e 15       	cp	r16, r14
    11a0:	1f 05       	cpc	r17, r15
    11a2:	29 f0       	breq	.+10     	; 0x11ae <__stack+0xaf>
    11a4:	f8 01       	movw	r30, r16
    11a6:	82 91       	ld	r24, -Z
    11a8:	8f 01       	movw	r16, r30
    11aa:	72 df       	rcall	.-284    	; 0x1090 <USART_transmit>
    11ac:	f8 cf       	rjmp	.-16     	; 0x119e <__stack+0x9f>
    11ae:	2a 96       	adiw	r28, 0x0a	; 10
    11b0:	0f b6       	in	r0, 0x3f	; 63
    11b2:	f8 94       	cli
    11b4:	de bf       	out	0x3e, r29	; 62
    11b6:	0f be       	out	0x3f, r0	; 63
    11b8:	cd bf       	out	0x3d, r28	; 61
    11ba:	df 91       	pop	r29
    11bc:	cf 91       	pop	r28
    11be:	1f 91       	pop	r17
    11c0:	0f 91       	pop	r16
    11c2:	ff 90       	pop	r15
    11c4:	ef 90       	pop	r14
    11c6:	df 90       	pop	r13
    11c8:	cf 90       	pop	r12
    11ca:	bf 90       	pop	r11
    11cc:	af 90       	pop	r10
    11ce:	9f 90       	pop	r9
    11d0:	8f 90       	pop	r8
    11d2:	7f 90       	pop	r7
    11d4:	6f 90       	pop	r6
    11d6:	5f 90       	pop	r5
    11d8:	4f 90       	pop	r4
    11da:	08 95       	ret

000011dc <enter>:
    11dc:	8d e0       	ldi	r24, 0x0D	; 13
    11de:	58 df       	rcall	.-336    	; 0x1090 <USART_transmit>
    11e0:	8a e0       	ldi	r24, 0x0A	; 10
    11e2:	56 cf       	rjmp	.-340    	; 0x1090 <USART_transmit>

000011e4 <disp_float_onPC>:
    11e4:	cf 92       	push	r12
    11e6:	df 92       	push	r13
    11e8:	ef 92       	push	r14
    11ea:	ff 92       	push	r15
    11ec:	0f 93       	push	r16
    11ee:	1f 93       	push	r17
    11f0:	cf 93       	push	r28
    11f2:	df 93       	push	r29
    11f4:	cd b7       	in	r28, 0x3d	; 61
    11f6:	de b7       	in	r29, 0x3e	; 62
    11f8:	2a 97       	sbiw	r28, 0x0a	; 10
    11fa:	0f b6       	in	r0, 0x3f	; 63
    11fc:	f8 94       	cli
    11fe:	de bf       	out	0x3e, r29	; 62
    1200:	0f be       	out	0x3f, r0	; 63
    1202:	cd bf       	out	0x3d, r28	; 61
    1204:	7c 01       	movw	r14, r24
    1206:	89 2b       	or	r24, r25
    1208:	19 f4       	brne	.+6      	; 0x1210 <disp_float_onPC+0x2c>
    120a:	86 e5       	ldi	r24, 0x56	; 86
    120c:	91 e0       	ldi	r25, 0x01	; 1
    120e:	40 df       	rcall	.-384    	; 0x1090 <USART_transmit>
    1210:	4a e0       	ldi	r20, 0x0A	; 10
    1212:	8e 01       	movw	r16, r28
    1214:	0f 5f       	subi	r16, 0xFF	; 255
    1216:	1f 4f       	sbci	r17, 0xFF	; 255
    1218:	b8 01       	movw	r22, r16
    121a:	c7 01       	movw	r24, r14
    121c:	0e 94 28 21 	call	0x4250	; 0x4250 <__itoa_ncheck>
    1220:	8a e0       	ldi	r24, 0x0A	; 10
    1222:	e8 16       	cp	r14, r24
    1224:	f1 04       	cpc	r15, r1
    1226:	b0 f4       	brcc	.+44     	; 0x1254 <disp_float_onPC+0x70>
    1228:	86 e5       	ldi	r24, 0x56	; 86
    122a:	91 e0       	ldi	r25, 0x01	; 1
    122c:	31 df       	rcall	.-414    	; 0x1090 <USART_transmit>
    122e:	f8 01       	movw	r30, r16
    1230:	01 90       	ld	r0, Z+
    1232:	00 20       	and	r0, r0
    1234:	e9 f7       	brne	.-6      	; 0x1230 <disp_float_onPC+0x4c>
    1236:	cf 01       	movw	r24, r30
    1238:	01 97       	sbiw	r24, 0x01	; 1
    123a:	7c 01       	movw	r14, r24
    123c:	f1 e0       	ldi	r31, 0x01	; 1
    123e:	ef 1a       	sub	r14, r31
    1240:	f1 08       	sbc	r15, r1
    1242:	c7 01       	movw	r24, r14
    1244:	80 1b       	sub	r24, r16
    1246:	91 0b       	sbc	r25, r17
    1248:	97 fd       	sbrc	r25, 7
    124a:	22 c0       	rjmp	.+68     	; 0x1290 <disp_float_onPC+0xac>
    124c:	f7 01       	movw	r30, r14
    124e:	80 81       	ld	r24, Z
    1250:	1f df       	rcall	.-450    	; 0x1090 <USART_transmit>
    1252:	f4 cf       	rjmp	.-24     	; 0x123c <disp_float_onPC+0x58>
    1254:	f8 01       	movw	r30, r16
    1256:	01 90       	ld	r0, Z+
    1258:	00 20       	and	r0, r0
    125a:	e9 f7       	brne	.-6      	; 0x1256 <disp_float_onPC+0x72>
    125c:	31 97       	sbiw	r30, 0x01	; 1
    125e:	7f 01       	movw	r14, r30
    1260:	e0 1a       	sub	r14, r16
    1262:	f1 0a       	sbc	r15, r17
    1264:	cc 24       	eor	r12, r12
    1266:	c3 94       	inc	r12
    1268:	d1 2c       	mov	r13, r1
    126a:	c7 01       	movw	r24, r14
    126c:	8c 19       	sub	r24, r12
    126e:	9d 09       	sbc	r25, r13
    1270:	97 fd       	sbrc	r25, 7
    1272:	0e c0       	rjmp	.+28     	; 0x1290 <disp_float_onPC+0xac>
    1274:	f8 01       	movw	r30, r16
    1276:	81 91       	ld	r24, Z+
    1278:	8f 01       	movw	r16, r30
    127a:	0a df       	rcall	.-492    	; 0x1090 <USART_transmit>
    127c:	f2 e0       	ldi	r31, 0x02	; 2
    127e:	cf 16       	cp	r12, r31
    1280:	d1 04       	cpc	r13, r1
    1282:	11 f4       	brne	.+4      	; 0x1288 <disp_float_onPC+0xa4>
    1284:	8e e2       	ldi	r24, 0x2E	; 46
    1286:	04 df       	rcall	.-504    	; 0x1090 <USART_transmit>
    1288:	8f ef       	ldi	r24, 0xFF	; 255
    128a:	c8 1a       	sub	r12, r24
    128c:	d8 0a       	sbc	r13, r24
    128e:	ed cf       	rjmp	.-38     	; 0x126a <disp_float_onPC+0x86>
    1290:	2a 96       	adiw	r28, 0x0a	; 10
    1292:	0f b6       	in	r0, 0x3f	; 63
    1294:	f8 94       	cli
    1296:	de bf       	out	0x3e, r29	; 62
    1298:	0f be       	out	0x3f, r0	; 63
    129a:	cd bf       	out	0x3d, r28	; 61
    129c:	df 91       	pop	r29
    129e:	cf 91       	pop	r28
    12a0:	1f 91       	pop	r17
    12a2:	0f 91       	pop	r16
    12a4:	ff 90       	pop	r15
    12a6:	ef 90       	pop	r14
    12a8:	df 90       	pop	r13
    12aa:	cf 90       	pop	r12
    12ac:	08 95       	ret

000012ae <convert_volttoint>:
    12ae:	ee e1       	ldi	r30, 0x1E	; 30
    12b0:	f6 e0       	ldi	r31, 0x06	; 6
    12b2:	60 83       	st	Z, r22
    12b4:	71 83       	std	Z+1, r23	; 0x01
    12b6:	08 95       	ret

000012b8 <convertinttovolt>:
    12b8:	10 92 07 05 	sts	0x0507, r1	; 0x800507 <__data_end+0x1>
    12bc:	10 92 06 05 	sts	0x0506, r1	; 0x800506 <__data_end>
    12c0:	fc 01       	movw	r30, r24
    12c2:	61 81       	ldd	r22, Z+1	; 0x01
    12c4:	70 e0       	ldi	r23, 0x00	; 0
    12c6:	70 93 07 05 	sts	0x0507, r23	; 0x800507 <__data_end+0x1>
    12ca:	60 93 06 05 	sts	0x0506, r22	; 0x800506 <__data_end>
    12ce:	76 2f       	mov	r23, r22
    12d0:	66 27       	eor	r22, r22
    12d2:	80 81       	ld	r24, Z
    12d4:	68 2b       	or	r22, r24
    12d6:	70 93 07 05 	sts	0x0507, r23	; 0x800507 <__data_end+0x1>
    12da:	60 93 06 05 	sts	0x0506, r22	; 0x800506 <__data_end>
    12de:	80 e0       	ldi	r24, 0x00	; 0
    12e0:	90 e0       	ldi	r25, 0x00	; 0
    12e2:	08 95       	ret

000012e4 <save_record_no>:
    12e4:	cf 93       	push	r28
    12e6:	c9 2f       	mov	r28, r25
    12e8:	68 2f       	mov	r22, r24
    12ea:	89 ef       	ldi	r24, 0xF9	; 249
    12ec:	91 e0       	ldi	r25, 0x01	; 1
    12ee:	0e 94 68 21 	call	0x42d0	; 0x42d0 <eeprom_write_byte>
    12f2:	6c 2f       	mov	r22, r28
    12f4:	8a ef       	ldi	r24, 0xFA	; 250
    12f6:	91 e0       	ldi	r25, 0x01	; 1
    12f8:	cf 91       	pop	r28
    12fa:	0c 94 68 21 	jmp	0x42d0	; 0x42d0 <eeprom_write_byte>

000012fe <save_record_no_full>:
    12fe:	cf 93       	push	r28
    1300:	c9 2f       	mov	r28, r25
    1302:	68 2f       	mov	r22, r24
    1304:	8b ef       	ldi	r24, 0xFB	; 251
    1306:	91 e0       	ldi	r25, 0x01	; 1
    1308:	0e 94 68 21 	call	0x42d0	; 0x42d0 <eeprom_write_byte>
    130c:	6c 2f       	mov	r22, r28
    130e:	8c ef       	ldi	r24, 0xFC	; 252
    1310:	91 e0       	ldi	r25, 0x01	; 1
    1312:	cf 91       	pop	r28
    1314:	0c 94 68 21 	jmp	0x42d0	; 0x42d0 <eeprom_write_byte>

00001318 <no_of_saved_data>:
    1318:	0f 93       	push	r16
    131a:	1f 93       	push	r17
    131c:	cf 93       	push	r28
    131e:	89 ef       	ldi	r24, 0xF9	; 249
    1320:	91 e0       	ldi	r25, 0x01	; 1
    1322:	0e 94 5b 21 	call	0x42b6	; 0x42b6 <eeprom_read_byte>
    1326:	c8 2f       	mov	r28, r24
    1328:	8a ef       	ldi	r24, 0xFA	; 250
    132a:	91 e0       	ldi	r25, 0x01	; 1
    132c:	0e 94 5b 21 	call	0x42b6	; 0x42b6 <eeprom_read_byte>
    1330:	4c 2f       	mov	r20, r28
    1332:	50 e0       	ldi	r21, 0x00	; 0
    1334:	60 e0       	ldi	r22, 0x00	; 0
    1336:	70 e0       	ldi	r23, 0x00	; 0
    1338:	8a 01       	movw	r16, r20
    133a:	9b 01       	movw	r18, r22
    133c:	18 2b       	or	r17, r24
    133e:	d9 01       	movw	r26, r18
    1340:	c8 01       	movw	r24, r16
    1342:	cf 91       	pop	r28
    1344:	1f 91       	pop	r17
    1346:	0f 91       	pop	r16
    1348:	08 95       	ret

0000134a <no_of_saved_data_full>:
    134a:	0f 93       	push	r16
    134c:	1f 93       	push	r17
    134e:	cf 93       	push	r28
    1350:	8b ef       	ldi	r24, 0xFB	; 251
    1352:	91 e0       	ldi	r25, 0x01	; 1
    1354:	0e 94 5b 21 	call	0x42b6	; 0x42b6 <eeprom_read_byte>
    1358:	c8 2f       	mov	r28, r24
    135a:	8c ef       	ldi	r24, 0xFC	; 252
    135c:	91 e0       	ldi	r25, 0x01	; 1
    135e:	0e 94 5b 21 	call	0x42b6	; 0x42b6 <eeprom_read_byte>
    1362:	4c 2f       	mov	r20, r28
    1364:	50 e0       	ldi	r21, 0x00	; 0
    1366:	60 e0       	ldi	r22, 0x00	; 0
    1368:	70 e0       	ldi	r23, 0x00	; 0
    136a:	8a 01       	movw	r16, r20
    136c:	9b 01       	movw	r18, r22
    136e:	18 2b       	or	r17, r24
    1370:	d9 01       	movw	r26, r18
    1372:	c8 01       	movw	r24, r16
    1374:	cf 91       	pop	r28
    1376:	1f 91       	pop	r17
    1378:	0f 91       	pop	r16
    137a:	08 95       	ret

0000137c <EXT_EEPROM_PAGE_WRITE>:
    137c:	cf 92       	push	r12
    137e:	df 92       	push	r13
    1380:	ef 92       	push	r14
    1382:	ff 92       	push	r15
    1384:	cf 93       	push	r28
    1386:	df 93       	push	r29
    1388:	c7 df       	rcall	.-114    	; 0x1318 <no_of_saved_data>
    138a:	ec 01       	movw	r28, r24
    138c:	8c e0       	ldi	r24, 0x0C	; 12
    138e:	8c 9f       	mul	r24, r28
    1390:	60 01       	movw	r12, r0
    1392:	8d 9f       	mul	r24, r29
    1394:	d0 0c       	add	r13, r0
    1396:	11 24       	eor	r1, r1
    1398:	e1 2c       	mov	r14, r1
    139a:	f1 2c       	mov	r15, r1
    139c:	20 e0       	ldi	r18, 0x00	; 0
    139e:	30 e0       	ldi	r19, 0x00	; 0
    13a0:	40 e2       	ldi	r20, 0x20	; 32
    13a2:	51 e4       	ldi	r21, 0x41	; 65
    13a4:	60 91 50 05 	lds	r22, 0x0550	; 0x800550 <BTVOLT>
    13a8:	70 91 51 05 	lds	r23, 0x0551	; 0x800551 <BTVOLT+0x1>
    13ac:	80 91 52 05 	lds	r24, 0x0552	; 0x800552 <BTVOLT+0x2>
    13b0:	90 91 53 05 	lds	r25, 0x0553	; 0x800553 <BTVOLT+0x3>
    13b4:	0e 94 95 20 	call	0x412a	; 0x412a <__mulsf3>
    13b8:	0e 94 b7 1f 	call	0x3f6e	; 0x3f6e <__fixunssfsi>
    13bc:	78 df       	rcall	.-272    	; 0x12ae <convert_volttoint>
    13be:	b7 01       	movw	r22, r14
    13c0:	a6 01       	movw	r20, r12
    13c2:	44 5f       	subi	r20, 0xF4	; 244
    13c4:	5f 4f       	sbci	r21, 0xFF	; 255
    13c6:	6f 4f       	sbci	r22, 0xFF	; 255
    13c8:	7f 4f       	sbci	r23, 0xFF	; 255
    13ca:	80 91 00 01 	lds	r24, 0x0100	; 0x800100 <LAST_ADDRESS>
    13ce:	90 91 01 01 	lds	r25, 0x0101	; 0x800101 <LAST_ADDRESS+0x1>
    13d2:	a0 91 02 01 	lds	r26, 0x0102	; 0x800102 <LAST_ADDRESS+0x2>
    13d6:	b0 91 03 01 	lds	r27, 0x0103	; 0x800103 <LAST_ADDRESS+0x3>
    13da:	84 17       	cp	r24, r20
    13dc:	95 07       	cpc	r25, r21
    13de:	a6 07       	cpc	r26, r22
    13e0:	b7 07       	cpc	r27, r23
    13e2:	c8 f4       	brcc	.+50     	; 0x1416 <EXT_EEPROM_PAGE_WRITE+0x9a>
    13e4:	0e 94 33 01 	call	0x266	; 0x266 <lcdClear>
    13e8:	84 ed       	ldi	r24, 0xD4	; 212
    13ea:	0e 94 9e 00 	call	0x13c	; 0x13c <lcdControlWrite>
    13ee:	64 e1       	ldi	r22, 0x14	; 20
    13f0:	8e e3       	ldi	r24, 0x3E	; 62
    13f2:	91 e0       	ldi	r25, 0x01	; 1
    13f4:	0e 94 35 01 	call	0x26a	; 0x26a <lcdPrintData>
    13f8:	61 e0       	ldi	r22, 0x01	; 1
    13fa:	88 e9       	ldi	r24, 0x98	; 152
    13fc:	90 e0       	ldi	r25, 0x00	; 0
    13fe:	0e 94 68 21 	call	0x42d0	; 0x42d0 <eeprom_write_byte>
    1402:	80 e0       	ldi	r24, 0x00	; 0
    1404:	90 e0       	ldi	r25, 0x00	; 0
    1406:	6e df       	rcall	.-292    	; 0x12e4 <save_record_no>
    1408:	ce 01       	movw	r24, r28
    140a:	79 df       	rcall	.-270    	; 0x12fe <save_record_no_full>
    140c:	c1 2c       	mov	r12, r1
    140e:	d1 2c       	mov	r13, r1
    1410:	76 01       	movw	r14, r12
    1412:	c0 e0       	ldi	r28, 0x00	; 0
    1414:	d0 e0       	ldi	r29, 0x00	; 0
    1416:	8f e1       	ldi	r24, 0x1F	; 31
    1418:	9e e4       	ldi	r25, 0x4E	; 78
    141a:	01 97       	sbiw	r24, 0x01	; 1
    141c:	f1 f7       	brne	.-4      	; 0x141a <EXT_EEPROM_PAGE_WRITE+0x9e>
    141e:	00 c0       	rjmp	.+0      	; 0x1420 <EXT_EEPROM_PAGE_WRITE+0xa4>
    1420:	00 00       	nop
    1422:	60 91 0b 05 	lds	r22, 0x050B	; 0x80050b <DATEin>
    1426:	c6 01       	movw	r24, r12
    1428:	2d db       	rcall	.-2470   	; 0xa84 <EEWriteByte>
    142a:	8f e1       	ldi	r24, 0x1F	; 31
    142c:	9e e4       	ldi	r25, 0x4E	; 78
    142e:	01 97       	sbiw	r24, 0x01	; 1
    1430:	f1 f7       	brne	.-4      	; 0x142e <EXT_EEPROM_PAGE_WRITE+0xb2>
    1432:	00 c0       	rjmp	.+0      	; 0x1434 <EXT_EEPROM_PAGE_WRITE+0xb8>
    1434:	00 00       	nop
    1436:	c6 01       	movw	r24, r12
    1438:	01 96       	adiw	r24, 0x01	; 1
    143a:	60 91 0c 05 	lds	r22, 0x050C	; 0x80050c <MONTHin>
    143e:	22 db       	rcall	.-2492   	; 0xa84 <EEWriteByte>
    1440:	8f e1       	ldi	r24, 0x1F	; 31
    1442:	9e e4       	ldi	r25, 0x4E	; 78
    1444:	01 97       	sbiw	r24, 0x01	; 1
    1446:	f1 f7       	brne	.-4      	; 0x1444 <EXT_EEPROM_PAGE_WRITE+0xc8>
    1448:	00 c0       	rjmp	.+0      	; 0x144a <EXT_EEPROM_PAGE_WRITE+0xce>
    144a:	00 00       	nop
    144c:	c6 01       	movw	r24, r12
    144e:	02 96       	adiw	r24, 0x02	; 2
    1450:	60 91 0a 05 	lds	r22, 0x050A	; 0x80050a <YEARin>
    1454:	17 db       	rcall	.-2514   	; 0xa84 <EEWriteByte>
    1456:	8f e1       	ldi	r24, 0x1F	; 31
    1458:	9e e4       	ldi	r25, 0x4E	; 78
    145a:	01 97       	sbiw	r24, 0x01	; 1
    145c:	f1 f7       	brne	.-4      	; 0x145a <EXT_EEPROM_PAGE_WRITE+0xde>
    145e:	00 c0       	rjmp	.+0      	; 0x1460 <EXT_EEPROM_PAGE_WRITE+0xe4>
    1460:	00 00       	nop
    1462:	c6 01       	movw	r24, r12
    1464:	03 96       	adiw	r24, 0x03	; 3
    1466:	60 91 0d 05 	lds	r22, 0x050D	; 0x80050d <HOURin>
    146a:	0c db       	rcall	.-2536   	; 0xa84 <EEWriteByte>
    146c:	8f e1       	ldi	r24, 0x1F	; 31
    146e:	9e e4       	ldi	r25, 0x4E	; 78
    1470:	01 97       	sbiw	r24, 0x01	; 1
    1472:	f1 f7       	brne	.-4      	; 0x1470 <EXT_EEPROM_PAGE_WRITE+0xf4>
    1474:	00 c0       	rjmp	.+0      	; 0x1476 <EXT_EEPROM_PAGE_WRITE+0xfa>
    1476:	00 00       	nop
    1478:	c6 01       	movw	r24, r12
    147a:	04 96       	adiw	r24, 0x04	; 4
    147c:	60 91 0e 05 	lds	r22, 0x050E	; 0x80050e <MINin>
    1480:	01 db       	rcall	.-2558   	; 0xa84 <EEWriteByte>
    1482:	8f e1       	ldi	r24, 0x1F	; 31
    1484:	9e e4       	ldi	r25, 0x4E	; 78
    1486:	01 97       	sbiw	r24, 0x01	; 1
    1488:	f1 f7       	brne	.-4      	; 0x1486 <EXT_EEPROM_PAGE_WRITE+0x10a>
    148a:	00 c0       	rjmp	.+0      	; 0x148c <EXT_EEPROM_PAGE_WRITE+0x110>
    148c:	00 00       	nop
    148e:	c6 01       	movw	r24, r12
    1490:	05 96       	adiw	r24, 0x05	; 5
    1492:	60 91 8d 05 	lds	r22, 0x058D	; 0x80058d <TROOM>
    1496:	f6 da       	rcall	.-2580   	; 0xa84 <EEWriteByte>
    1498:	8f e1       	ldi	r24, 0x1F	; 31
    149a:	9e e4       	ldi	r25, 0x4E	; 78
    149c:	01 97       	sbiw	r24, 0x01	; 1
    149e:	f1 f7       	brne	.-4      	; 0x149c <EXT_EEPROM_PAGE_WRITE+0x120>
    14a0:	00 c0       	rjmp	.+0      	; 0x14a2 <EXT_EEPROM_PAGE_WRITE+0x126>
    14a2:	00 00       	nop
    14a4:	c6 01       	movw	r24, r12
    14a6:	06 96       	adiw	r24, 0x06	; 6
    14a8:	60 91 8b 05 	lds	r22, 0x058B	; 0x80058b <TOUT>
    14ac:	eb da       	rcall	.-2602   	; 0xa84 <EEWriteByte>
    14ae:	8f e1       	ldi	r24, 0x1F	; 31
    14b0:	9e e4       	ldi	r25, 0x4E	; 78
    14b2:	01 97       	sbiw	r24, 0x01	; 1
    14b4:	f1 f7       	brne	.-4      	; 0x14b2 <EXT_EEPROM_PAGE_WRITE+0x136>
    14b6:	00 c0       	rjmp	.+0      	; 0x14b8 <EXT_EEPROM_PAGE_WRITE+0x13c>
    14b8:	00 00       	nop
    14ba:	c6 01       	movw	r24, r12
    14bc:	07 96       	adiw	r24, 0x07	; 7
    14be:	60 91 6e 05 	lds	r22, 0x056E	; 0x80056e <FANMODE>
    14c2:	e0 da       	rcall	.-2624   	; 0xa84 <EEWriteByte>
    14c4:	8f e1       	ldi	r24, 0x1F	; 31
    14c6:	9e e4       	ldi	r25, 0x4E	; 78
    14c8:	01 97       	sbiw	r24, 0x01	; 1
    14ca:	f1 f7       	brne	.-4      	; 0x14c8 <EXT_EEPROM_PAGE_WRITE+0x14c>
    14cc:	00 c0       	rjmp	.+0      	; 0x14ce <EXT_EEPROM_PAGE_WRITE+0x152>
    14ce:	00 00       	nop
    14d0:	c6 01       	movw	r24, r12
    14d2:	08 96       	adiw	r24, 0x08	; 8
    14d4:	60 91 5e 05 	lds	r22, 0x055E	; 0x80055e <FANFAULTY>
    14d8:	d5 da       	rcall	.-2646   	; 0xa84 <EEWriteByte>
    14da:	8f e1       	ldi	r24, 0x1F	; 31
    14dc:	9e e4       	ldi	r25, 0x4E	; 78
    14de:	01 97       	sbiw	r24, 0x01	; 1
    14e0:	f1 f7       	brne	.-4      	; 0x14de <EXT_EEPROM_PAGE_WRITE+0x162>
    14e2:	00 c0       	rjmp	.+0      	; 0x14e4 <EXT_EEPROM_PAGE_WRITE+0x168>
    14e4:	00 00       	nop
    14e6:	c6 01       	movw	r24, r12
    14e8:	09 96       	adiw	r24, 0x09	; 9
    14ea:	60 91 2e 05 	lds	r22, 0x052E	; 0x80052e <FJAM>
    14ee:	ca da       	rcall	.-2668   	; 0xa84 <EEWriteByte>
    14f0:	8f e1       	ldi	r24, 0x1F	; 31
    14f2:	9e e4       	ldi	r25, 0x4E	; 78
    14f4:	01 97       	sbiw	r24, 0x01	; 1
    14f6:	f1 f7       	brne	.-4      	; 0x14f4 <EXT_EEPROM_PAGE_WRITE+0x178>
    14f8:	00 c0       	rjmp	.+0      	; 0x14fa <EXT_EEPROM_PAGE_WRITE+0x17e>
    14fa:	00 00       	nop
    14fc:	c6 01       	movw	r24, r12
    14fe:	0a 96       	adiw	r24, 0x0a	; 10
    1500:	60 91 1e 06 	lds	r22, 0x061E	; 0x80061e <VOLT>
    1504:	bf da       	rcall	.-2690   	; 0xa84 <EEWriteByte>
    1506:	8f e1       	ldi	r24, 0x1F	; 31
    1508:	9e e4       	ldi	r25, 0x4E	; 78
    150a:	01 97       	sbiw	r24, 0x01	; 1
    150c:	f1 f7       	brne	.-4      	; 0x150a <EXT_EEPROM_PAGE_WRITE+0x18e>
    150e:	00 c0       	rjmp	.+0      	; 0x1510 <EXT_EEPROM_PAGE_WRITE+0x194>
    1510:	00 00       	nop
    1512:	c6 01       	movw	r24, r12
    1514:	0b 96       	adiw	r24, 0x0b	; 11
    1516:	60 91 1f 06 	lds	r22, 0x061F	; 0x80061f <VOLT+0x1>
    151a:	b4 da       	rcall	.-2712   	; 0xa84 <EEWriteByte>
    151c:	8f e1       	ldi	r24, 0x1F	; 31
    151e:	9e e4       	ldi	r25, 0x4E	; 78
    1520:	01 97       	sbiw	r24, 0x01	; 1
    1522:	f1 f7       	brne	.-4      	; 0x1520 <EXT_EEPROM_PAGE_WRITE+0x1a4>
    1524:	00 c0       	rjmp	.+0      	; 0x1526 <EXT_EEPROM_PAGE_WRITE+0x1aa>
    1526:	00 00       	nop
    1528:	ce 01       	movw	r24, r28
    152a:	01 96       	adiw	r24, 0x01	; 1
    152c:	df 91       	pop	r29
    152e:	cf 91       	pop	r28
    1530:	ff 90       	pop	r15
    1532:	ef 90       	pop	r14
    1534:	df 90       	pop	r13
    1536:	cf 90       	pop	r12
    1538:	d5 ce       	rjmp	.-598    	; 0x12e4 <save_record_no>

0000153a <Save_EEPROM>:
    153a:	b2 dc       	rcall	.-1692   	; 0xea0 <DATE_TIME_Conversion>
    153c:	80 91 0e 05 	lds	r24, 0x050E	; 0x80050e <MINin>
    1540:	60 91 14 05 	lds	r22, 0x0514	; 0x800514 <INTERV>
    1544:	0e 94 f8 20 	call	0x41f0	; 0x41f0 <__udivmodqi4>
    1548:	91 11       	cpse	r25, r1
    154a:	13 c0       	rjmp	.+38     	; 0x1572 <Save_EEPROM+0x38>
    154c:	80 91 0f 05 	lds	r24, 0x050F	; 0x80050f <SECin>
    1550:	81 11       	cpse	r24, r1
    1552:	0f c0       	rjmp	.+30     	; 0x1572 <Save_EEPROM+0x38>
    1554:	80 91 05 01 	lds	r24, 0x0105	; 0x800105 <EEP_CHK_BIT>
    1558:	81 30       	cpi	r24, 0x01	; 1
    155a:	59 f4       	brne	.+22     	; 0x1572 <Save_EEPROM+0x38>
    155c:	89 da       	rcall	.-2798   	; 0xa70 <EEOpen>
    155e:	0e df       	rcall	.-484    	; 0x137c <EXT_EEPROM_PAGE_WRITE>
    1560:	82 e0       	ldi	r24, 0x02	; 2
    1562:	80 93 05 01 	sts	0x0105, r24	; 0x800105 <EEP_CHK_BIT>
    1566:	75 da       	rcall	.-2838   	; 0xa52 <twi_init>
    1568:	d7 de       	rcall	.-594    	; 0x1318 <no_of_saved_data>
    156a:	90 93 13 05 	sts	0x0513, r25	; 0x800513 <SAVED_DATA+0x1>
    156e:	80 93 12 05 	sts	0x0512, r24	; 0x800512 <SAVED_DATA>
    1572:	80 91 0f 05 	lds	r24, 0x050F	; 0x80050f <SECin>
    1576:	81 30       	cpi	r24, 0x01	; 1
    1578:	11 f4       	brne	.+4      	; 0x157e <Save_EEPROM+0x44>
    157a:	80 93 05 01 	sts	0x0105, r24	; 0x800105 <EEP_CHK_BIT>
    157e:	08 95       	ret

00001580 <SHOW_SAVED_DATA_PC>:
    1580:	7f 92       	push	r7
    1582:	8f 92       	push	r8
    1584:	9f 92       	push	r9
    1586:	af 92       	push	r10
    1588:	bf 92       	push	r11
    158a:	cf 92       	push	r12
    158c:	df 92       	push	r13
    158e:	ef 92       	push	r14
    1590:	ff 92       	push	r15
    1592:	0f 93       	push	r16
    1594:	1f 93       	push	r17
    1596:	cf 93       	push	r28
    1598:	df 93       	push	r29
    159a:	8b 01       	movw	r16, r22
    159c:	d8 2f       	mov	r29, r24
    159e:	c9 2f       	mov	r28, r25
    15a0:	80 91 08 05 	lds	r24, 0x0508	; 0x800508 <DATANO>
    15a4:	90 91 09 05 	lds	r25, 0x0509	; 0x800509 <DATANO+0x1>
    15a8:	01 96       	adiw	r24, 0x01	; 1
    15aa:	90 93 09 05 	sts	0x0509, r25	; 0x800509 <DATANO+0x1>
    15ae:	80 93 08 05 	sts	0x0508, r24	; 0x800508 <DATANO>
    15b2:	82 e5       	ldi	r24, 0x52	; 82
    15b4:	91 e0       	ldi	r25, 0x01	; 1
    15b6:	70 dd       	rcall	.-1312   	; 0x1098 <USART_TransmitString>
    15b8:	80 91 08 05 	lds	r24, 0x0508	; 0x800508 <DATANO>
    15bc:	90 91 09 05 	lds	r25, 0x0509	; 0x800509 <DATANO+0x1>
    15c0:	85 36       	cpi	r24, 0x65	; 101
    15c2:	91 05       	cpc	r25, r1
    15c4:	30 f0       	brcs	.+12     	; 0x15d2 <SHOW_SAVED_DATA_PC+0x52>
    15c6:	88 3e       	cpi	r24, 0xE8	; 232
    15c8:	93 40       	sbci	r25, 0x03	; 3
    15ca:	30 f4       	brcc	.+12     	; 0x15d8 <SHOW_SAVED_DATA_PC+0x58>
    15cc:	86 e5       	ldi	r24, 0x56	; 86
    15ce:	91 e0       	ldi	r25, 0x01	; 1
    15d0:	02 c0       	rjmp	.+4      	; 0x15d6 <SHOW_SAVED_DATA_PC+0x56>
    15d2:	85 e5       	ldi	r24, 0x55	; 85
    15d4:	91 e0       	ldi	r25, 0x01	; 1
    15d6:	60 dd       	rcall	.-1344   	; 0x1098 <USART_TransmitString>
    15d8:	80 91 08 05 	lds	r24, 0x0508	; 0x800508 <DATANO>
    15dc:	90 91 09 05 	lds	r25, 0x0509	; 0x800509 <DATANO+0x1>
    15e0:	80 dd       	rcall	.-1280   	; 0x10e2 <disp_int_onPC>
    15e2:	88 e5       	ldi	r24, 0x58	; 88
    15e4:	91 e0       	ldi	r25, 0x01	; 1
    15e6:	58 dd       	rcall	.-1360   	; 0x1098 <USART_TransmitString>
    15e8:	8b e5       	ldi	r24, 0x5B	; 91
    15ea:	91 e0       	ldi	r25, 0x01	; 1
    15ec:	55 dd       	rcall	.-1366   	; 0x1098 <USART_TransmitString>
    15ee:	40 da       	rcall	.-2944   	; 0xa70 <EEOpen>
    15f0:	68 01       	movw	r12, r16
    15f2:	ed 2e       	mov	r14, r29
    15f4:	fc 2e       	mov	r15, r28
    15f6:	c0 e0       	ldi	r28, 0x00	; 0
    15f8:	d0 e0       	ldi	r29, 0x00	; 0
    15fa:	46 01       	movw	r8, r12
    15fc:	57 01       	movw	r10, r14
    15fe:	8c e0       	ldi	r24, 0x0C	; 12
    1600:	88 0e       	add	r8, r24
    1602:	91 1c       	adc	r9, r1
    1604:	a1 1c       	adc	r10, r1
    1606:	b1 1c       	adc	r11, r1
    1608:	08 e1       	ldi	r16, 0x18	; 24
    160a:	8f e0       	ldi	r24, 0x0F	; 15
    160c:	78 2e       	mov	r7, r24
    160e:	c8 14       	cp	r12, r8
    1610:	d9 04       	cpc	r13, r9
    1612:	ea 04       	cpc	r14, r10
    1614:	fb 04       	cpc	r15, r11
    1616:	08 f0       	brcs	.+2      	; 0x161a <SHOW_SAVED_DATA_PC+0x9a>
    1618:	6b c0       	rjmp	.+214    	; 0x16f0 <SHOW_SAVED_DATA_PC+0x170>
    161a:	21 96       	adiw	r28, 0x01	; 1
    161c:	c6 01       	movw	r24, r12
    161e:	88 da       	rcall	.-2800   	; 0xb30 <EEReadByte>
    1620:	18 2f       	mov	r17, r24
    1622:	c6 30       	cpi	r28, 0x06	; 6
    1624:	d1 05       	cpc	r29, r1
    1626:	3c f4       	brge	.+14     	; 0x1636 <SHOW_SAVED_DATA_PC+0xb6>
    1628:	90 e0       	ldi	r25, 0x00	; 0
    162a:	5b dd       	rcall	.-1354   	; 0x10e2 <disp_int_onPC>
    162c:	c1 30       	cpi	r28, 0x01	; 1
    162e:	d1 05       	cpc	r29, r1
    1630:	09 f0       	breq	.+2      	; 0x1634 <SHOW_SAVED_DATA_PC+0xb4>
    1632:	3b c0       	rjmp	.+118    	; 0x16aa <SHOW_SAVED_DATA_PC+0x12a>
    1634:	3d c0       	rjmp	.+122    	; 0x16b0 <SHOW_SAVED_DATA_PC+0x130>
    1636:	c6 30       	cpi	r28, 0x06	; 6
    1638:	d1 05       	cpc	r29, r1
    163a:	19 f4       	brne	.+6      	; 0x1642 <SHOW_SAVED_DATA_PC+0xc2>
    163c:	81 e6       	ldi	r24, 0x61	; 97
    163e:	91 e0       	ldi	r25, 0x01	; 1
    1640:	17 c0       	rjmp	.+46     	; 0x1670 <SHOW_SAVED_DATA_PC+0xf0>
    1642:	c7 30       	cpi	r28, 0x07	; 7
    1644:	d1 05       	cpc	r29, r1
    1646:	19 f4       	brne	.+6      	; 0x164e <SHOW_SAVED_DATA_PC+0xce>
    1648:	88 e6       	ldi	r24, 0x68	; 104
    164a:	91 e0       	ldi	r25, 0x01	; 1
    164c:	11 c0       	rjmp	.+34     	; 0x1670 <SHOW_SAVED_DATA_PC+0xf0>
    164e:	c8 30       	cpi	r28, 0x08	; 8
    1650:	d1 05       	cpc	r29, r1
    1652:	19 f4       	brne	.+6      	; 0x165a <SHOW_SAVED_DATA_PC+0xda>
    1654:	8f e6       	ldi	r24, 0x6F	; 111
    1656:	91 e0       	ldi	r25, 0x01	; 1
    1658:	0b c0       	rjmp	.+22     	; 0x1670 <SHOW_SAVED_DATA_PC+0xf0>
    165a:	c9 30       	cpi	r28, 0x09	; 9
    165c:	d1 05       	cpc	r29, r1
    165e:	19 f4       	brne	.+6      	; 0x1666 <SHOW_SAVED_DATA_PC+0xe6>
    1660:	89 e7       	ldi	r24, 0x79	; 121
    1662:	91 e0       	ldi	r25, 0x01	; 1
    1664:	05 c0       	rjmp	.+10     	; 0x1670 <SHOW_SAVED_DATA_PC+0xf0>
    1666:	ca 30       	cpi	r28, 0x0A	; 10
    1668:	d1 05       	cpc	r29, r1
    166a:	39 f4       	brne	.+14     	; 0x167a <SHOW_SAVED_DATA_PC+0xfa>
    166c:	85 e8       	ldi	r24, 0x85	; 133
    166e:	91 e0       	ldi	r25, 0x01	; 1
    1670:	13 dd       	rcall	.-1498   	; 0x1098 <USART_TransmitString>
    1672:	81 2f       	mov	r24, r17
    1674:	90 e0       	ldi	r25, 0x00	; 0
    1676:	35 dd       	rcall	.-1430   	; 0x10e2 <disp_int_onPC>
    1678:	2e c0       	rjmp	.+92     	; 0x16d6 <SHOW_SAVED_DATA_PC+0x156>
    167a:	cb 30       	cpi	r28, 0x0B	; 11
    167c:	d1 05       	cpc	r29, r1
    167e:	29 f4       	brne	.+10     	; 0x168a <SHOW_SAVED_DATA_PC+0x10a>
    1680:	80 93 1e 06 	sts	0x061E, r24	; 0x80061e <VOLT>
    1684:	82 e9       	ldi	r24, 0x92	; 146
    1686:	91 e0       	ldi	r25, 0x01	; 1
    1688:	1a c0       	rjmp	.+52     	; 0x16be <SHOW_SAVED_DATA_PC+0x13e>
    168a:	cc 30       	cpi	r28, 0x0C	; 12
    168c:	d1 05       	cpc	r29, r1
    168e:	91 f4       	brne	.+36     	; 0x16b4 <SHOW_SAVED_DATA_PC+0x134>
    1690:	80 93 1f 06 	sts	0x061F, r24	; 0x80061f <VOLT+0x1>
    1694:	8e e1       	ldi	r24, 0x1E	; 30
    1696:	96 e0       	ldi	r25, 0x06	; 6
    1698:	0f de       	rcall	.-994    	; 0x12b8 <convertinttovolt>
    169a:	80 91 06 05 	lds	r24, 0x0506	; 0x800506 <__data_end>
    169e:	90 91 07 05 	lds	r25, 0x0507	; 0x800507 <__data_end+0x1>
    16a2:	a0 dd       	rcall	.-1216   	; 0x11e4 <disp_float_onPC>
    16a4:	80 ea       	ldi	r24, 0xA0	; 160
    16a6:	91 e0       	ldi	r25, 0x01	; 1
    16a8:	0a c0       	rjmp	.+20     	; 0x16be <SHOW_SAVED_DATA_PC+0x13e>
    16aa:	c2 30       	cpi	r28, 0x02	; 2
    16ac:	d1 05       	cpc	r29, r1
    16ae:	11 f4       	brne	.+4      	; 0x16b4 <SHOW_SAVED_DATA_PC+0x134>
    16b0:	8d e2       	ldi	r24, 0x2D	; 45
    16b2:	10 c0       	rjmp	.+32     	; 0x16d4 <SHOW_SAVED_DATA_PC+0x154>
    16b4:	c3 30       	cpi	r28, 0x03	; 3
    16b6:	d1 05       	cpc	r29, r1
    16b8:	21 f4       	brne	.+8      	; 0x16c2 <SHOW_SAVED_DATA_PC+0x142>
    16ba:	82 ea       	ldi	r24, 0xA2	; 162
    16bc:	91 e0       	ldi	r25, 0x01	; 1
    16be:	ec dc       	rcall	.-1576   	; 0x1098 <USART_TransmitString>
    16c0:	0a c0       	rjmp	.+20     	; 0x16d6 <SHOW_SAVED_DATA_PC+0x156>
    16c2:	c4 30       	cpi	r28, 0x04	; 4
    16c4:	d1 05       	cpc	r29, r1
    16c6:	11 f4       	brne	.+4      	; 0x16cc <SHOW_SAVED_DATA_PC+0x14c>
    16c8:	8a e3       	ldi	r24, 0x3A	; 58
    16ca:	04 c0       	rjmp	.+8      	; 0x16d4 <SHOW_SAVED_DATA_PC+0x154>
    16cc:	c5 30       	cpi	r28, 0x05	; 5
    16ce:	d1 05       	cpc	r29, r1
    16d0:	11 f4       	brne	.+4      	; 0x16d6 <SHOW_SAVED_DATA_PC+0x156>
    16d2:	80 e2       	ldi	r24, 0x20	; 32
    16d4:	dd dc       	rcall	.-1606   	; 0x1090 <USART_transmit>
    16d6:	a8 95       	wdr
    16d8:	0f b6       	in	r0, 0x3f	; 63
    16da:	f8 94       	cli
    16dc:	a8 95       	wdr
    16de:	01 bd       	out	0x21, r16	; 33
    16e0:	0f be       	out	0x3f, r0	; 63
    16e2:	71 bc       	out	0x21, r7	; 33
    16e4:	9f ef       	ldi	r25, 0xFF	; 255
    16e6:	c9 1a       	sub	r12, r25
    16e8:	d9 0a       	sbc	r13, r25
    16ea:	e9 0a       	sbc	r14, r25
    16ec:	f9 0a       	sbc	r15, r25
    16ee:	8f cf       	rjmp	.-226    	; 0x160e <SHOW_SAVED_DATA_PC+0x8e>
    16f0:	b0 d9       	rcall	.-3232   	; 0xa52 <twi_init>
    16f2:	74 dd       	rcall	.-1304   	; 0x11dc <enter>
    16f4:	2f ef       	ldi	r18, 0xFF	; 255
    16f6:	80 e7       	ldi	r24, 0x70	; 112
    16f8:	92 e0       	ldi	r25, 0x02	; 2
    16fa:	21 50       	subi	r18, 0x01	; 1
    16fc:	80 40       	sbci	r24, 0x00	; 0
    16fe:	90 40       	sbci	r25, 0x00	; 0
    1700:	e1 f7       	brne	.-8      	; 0x16fa <SHOW_SAVED_DATA_PC+0x17a>
    1702:	00 c0       	rjmp	.+0      	; 0x1704 <SHOW_SAVED_DATA_PC+0x184>
    1704:	00 00       	nop
    1706:	a8 95       	wdr
    1708:	9f e0       	ldi	r25, 0x0F	; 15
    170a:	88 e1       	ldi	r24, 0x18	; 24
    170c:	0f b6       	in	r0, 0x3f	; 63
    170e:	f8 94       	cli
    1710:	a8 95       	wdr
    1712:	81 bd       	out	0x21, r24	; 33
    1714:	0f be       	out	0x3f, r0	; 63
    1716:	91 bd       	out	0x21, r25	; 33
    1718:	df 91       	pop	r29
    171a:	cf 91       	pop	r28
    171c:	1f 91       	pop	r17
    171e:	0f 91       	pop	r16
    1720:	ff 90       	pop	r15
    1722:	ef 90       	pop	r14
    1724:	df 90       	pop	r13
    1726:	cf 90       	pop	r12
    1728:	bf 90       	pop	r11
    172a:	af 90       	pop	r10
    172c:	9f 90       	pop	r9
    172e:	8f 90       	pop	r8
    1730:	7f 90       	pop	r7
    1732:	08 95       	ret

00001734 <SHOW_ROLING_EEPROM_EX_DATA>:
    1734:	af 92       	push	r10
    1736:	bf 92       	push	r11
    1738:	cf 92       	push	r12
    173a:	df 92       	push	r13
    173c:	ef 92       	push	r14
    173e:	ff 92       	push	r15
    1740:	0f 93       	push	r16
    1742:	1f 93       	push	r17
    1744:	cf 93       	push	r28
    1746:	df 93       	push	r29
    1748:	e7 dd       	rcall	.-1074   	; 0x1318 <no_of_saved_data>
    174a:	ec 01       	movw	r28, r24
    174c:	1d 98       	cbi	0x03, 5	; 3
    174e:	46 dd       	rcall	.-1396   	; 0x11dc <enter>
    1750:	89 ea       	ldi	r24, 0xA9	; 169
    1752:	91 e0       	ldi	r25, 0x01	; 1
    1754:	a1 dc       	rcall	.-1726   	; 0x1098 <USART_TransmitString>
    1756:	10 92 09 05 	sts	0x0509, r1	; 0x800509 <DATANO+0x1>
    175a:	10 92 08 05 	sts	0x0508, r1	; 0x800508 <DATANO>
    175e:	20 97       	sbiw	r28, 0x00	; 0
    1760:	21 f4       	brne	.+8      	; 0x176a <SHOW_ROLING_EEPROM_EX_DATA+0x36>
    1762:	8d eb       	ldi	r24, 0xBD	; 189
    1764:	91 e0       	ldi	r25, 0x01	; 1
    1766:	98 dc       	rcall	.-1744   	; 0x1098 <USART_TransmitString>
    1768:	73 c0       	rjmp	.+230    	; 0x1850 <SHOW_ROLING_EEPROM_EX_DATA+0x11c>
    176a:	88 e9       	ldi	r24, 0x98	; 152
    176c:	90 e0       	ldi	r25, 0x00	; 0
    176e:	0e 94 5b 21 	call	0x42b6	; 0x42b6 <eeprom_read_byte>
    1772:	81 30       	cpi	r24, 0x01	; 1
    1774:	09 f0       	breq	.+2      	; 0x1778 <SHOW_ROLING_EEPROM_EX_DATA+0x44>
    1776:	4a c0       	rjmp	.+148    	; 0x180c <SHOW_ROLING_EEPROM_EX_DATA+0xd8>
    1778:	e8 dd       	rcall	.-1072   	; 0x134a <no_of_saved_data_full>
    177a:	ec 01       	movw	r28, r24
    177c:	2f dd       	rcall	.-1442   	; 0x11dc <enter>
    177e:	cc dd       	rcall	.-1128   	; 0x1318 <no_of_saved_data>
    1780:	8c 01       	movw	r16, r24
    1782:	8c e0       	ldi	r24, 0x0C	; 12
    1784:	80 9f       	mul	r24, r16
    1786:	60 01       	movw	r12, r0
    1788:	81 9f       	mul	r24, r17
    178a:	d0 0c       	add	r13, r0
    178c:	11 24       	eor	r1, r1
    178e:	e1 2c       	mov	r14, r1
    1790:	f1 2c       	mov	r15, r1
    1792:	48 e1       	ldi	r20, 0x18	; 24
    1794:	b4 2e       	mov	r11, r20
    1796:	5f e0       	ldi	r21, 0x0F	; 15
    1798:	a5 2e       	mov	r10, r21
    179a:	8c e0       	ldi	r24, 0x0C	; 12
    179c:	e8 1a       	sub	r14, r24
    179e:	f1 08       	sbc	r15, r1
    17a0:	01 15       	cp	r16, r1
    17a2:	11 05       	cpc	r17, r1
    17a4:	81 f0       	breq	.+32     	; 0x17c6 <SHOW_ROLING_EEPROM_EX_DATA+0x92>
    17a6:	a8 95       	wdr
    17a8:	0f b6       	in	r0, 0x3f	; 63
    17aa:	f8 94       	cli
    17ac:	a8 95       	wdr
    17ae:	b1 bc       	out	0x21, r11	; 33
    17b0:	0f be       	out	0x3f, r0	; 63
    17b2:	a1 bc       	out	0x21, r10	; 33
    17b4:	b7 01       	movw	r22, r14
    17b6:	6c 0d       	add	r22, r12
    17b8:	7d 1d       	adc	r23, r13
    17ba:	80 e0       	ldi	r24, 0x00	; 0
    17bc:	90 e0       	ldi	r25, 0x00	; 0
    17be:	e0 de       	rcall	.-576    	; 0x1580 <SHOW_SAVED_DATA_PC>
    17c0:	01 50       	subi	r16, 0x01	; 1
    17c2:	11 09       	sbc	r17, r1
    17c4:	ea cf       	rjmp	.-44     	; 0x179a <SHOW_ROLING_EEPROM_EX_DATA+0x66>
    17c6:	a8 dd       	rcall	.-1200   	; 0x1318 <no_of_saved_data>
    17c8:	7c 01       	movw	r14, r24
    17ca:	8c e0       	ldi	r24, 0x0C	; 12
    17cc:	8c 9f       	mul	r24, r28
    17ce:	60 01       	movw	r12, r0
    17d0:	8d 9f       	mul	r24, r29
    17d2:	d0 0c       	add	r13, r0
    17d4:	11 24       	eor	r1, r1
    17d6:	00 e0       	ldi	r16, 0x00	; 0
    17d8:	10 e0       	ldi	r17, 0x00	; 0
    17da:	28 e1       	ldi	r18, 0x18	; 24
    17dc:	b2 2e       	mov	r11, r18
    17de:	3f e0       	ldi	r19, 0x0F	; 15
    17e0:	a3 2e       	mov	r10, r19
    17e2:	0c 50       	subi	r16, 0x0C	; 12
    17e4:	11 09       	sbc	r17, r1
    17e6:	ce 15       	cp	r28, r14
    17e8:	df 05       	cpc	r29, r15
    17ea:	09 f4       	brne	.+2      	; 0x17ee <SHOW_ROLING_EEPROM_EX_DATA+0xba>
    17ec:	31 c0       	rjmp	.+98     	; 0x1850 <SHOW_ROLING_EEPROM_EX_DATA+0x11c>
    17ee:	a8 95       	wdr
    17f0:	0f b6       	in	r0, 0x3f	; 63
    17f2:	f8 94       	cli
    17f4:	a8 95       	wdr
    17f6:	b1 bc       	out	0x21, r11	; 33
    17f8:	0f be       	out	0x3f, r0	; 63
    17fa:	a1 bc       	out	0x21, r10	; 33
    17fc:	b6 01       	movw	r22, r12
    17fe:	60 0f       	add	r22, r16
    1800:	71 1f       	adc	r23, r17
    1802:	80 e0       	ldi	r24, 0x00	; 0
    1804:	90 e0       	ldi	r25, 0x00	; 0
    1806:	bc de       	rcall	.-648    	; 0x1580 <SHOW_SAVED_DATA_PC>
    1808:	21 97       	sbiw	r28, 0x01	; 1
    180a:	eb cf       	rjmp	.-42     	; 0x17e2 <SHOW_ROLING_EEPROM_EX_DATA+0xae>
    180c:	e7 dc       	rcall	.-1586   	; 0x11dc <enter>
    180e:	8c e0       	ldi	r24, 0x0C	; 12
    1810:	8c 9f       	mul	r24, r28
    1812:	70 01       	movw	r14, r0
    1814:	8d 9f       	mul	r24, r29
    1816:	f0 0c       	add	r15, r0
    1818:	11 24       	eor	r1, r1
    181a:	00 e0       	ldi	r16, 0x00	; 0
    181c:	10 e0       	ldi	r17, 0x00	; 0
    181e:	88 e1       	ldi	r24, 0x18	; 24
    1820:	d8 2e       	mov	r13, r24
    1822:	9f e0       	ldi	r25, 0x0F	; 15
    1824:	c9 2e       	mov	r12, r25
    1826:	8c e0       	ldi	r24, 0x0C	; 12
    1828:	e8 1a       	sub	r14, r24
    182a:	f1 08       	sbc	r15, r1
    182c:	a8 95       	wdr
    182e:	0f b6       	in	r0, 0x3f	; 63
    1830:	f8 94       	cli
    1832:	a8 95       	wdr
    1834:	d1 bc       	out	0x21, r13	; 33
    1836:	0f be       	out	0x3f, r0	; 63
    1838:	c1 bc       	out	0x21, r12	; 33
    183a:	b7 01       	movw	r22, r14
    183c:	60 0f       	add	r22, r16
    183e:	71 1f       	adc	r23, r17
    1840:	80 e0       	ldi	r24, 0x00	; 0
    1842:	90 e0       	ldi	r25, 0x00	; 0
    1844:	9d de       	rcall	.-710    	; 0x1580 <SHOW_SAVED_DATA_PC>
    1846:	21 97       	sbiw	r28, 0x01	; 1
    1848:	0c 50       	subi	r16, 0x0C	; 12
    184a:	11 09       	sbc	r17, r1
    184c:	20 97       	sbiw	r28, 0x00	; 0
    184e:	71 f7       	brne	.-36     	; 0x182c <SHOW_ROLING_EEPROM_EX_DATA+0xf8>
    1850:	1d 9a       	sbi	0x03, 5	; 3
    1852:	df 91       	pop	r29
    1854:	cf 91       	pop	r28
    1856:	1f 91       	pop	r17
    1858:	0f 91       	pop	r16
    185a:	ff 90       	pop	r15
    185c:	ef 90       	pop	r14
    185e:	df 90       	pop	r13
    1860:	cf 90       	pop	r12
    1862:	bf 90       	pop	r11
    1864:	af 90       	pop	r10
    1866:	08 95       	ret

00001868 <time_func>:
    1868:	80 91 42 05 	lds	r24, 0x0542	; 0x800542 <ss>
    186c:	8f 5f       	subi	r24, 0xFF	; 255
    186e:	80 93 42 05 	sts	0x0542, r24	; 0x800542 <ss>
    1872:	8c 33       	cpi	r24, 0x3C	; 60
    1874:	80 f0       	brcs	.+32     	; 0x1896 <time_func+0x2e>
    1876:	80 91 41 05 	lds	r24, 0x0541	; 0x800541 <mm>
    187a:	8f 5f       	subi	r24, 0xFF	; 255
    187c:	80 93 41 05 	sts	0x0541, r24	; 0x800541 <mm>
    1880:	10 92 42 05 	sts	0x0542, r1	; 0x800542 <ss>
    1884:	8c 33       	cpi	r24, 0x3C	; 60
    1886:	38 f0       	brcs	.+14     	; 0x1896 <time_func+0x2e>
    1888:	80 91 43 05 	lds	r24, 0x0543	; 0x800543 <hh>
    188c:	8f 5f       	subi	r24, 0xFF	; 255
    188e:	80 93 43 05 	sts	0x0543, r24	; 0x800543 <hh>
    1892:	10 92 41 05 	sts	0x0541, r1	; 0x800541 <mm>
    1896:	08 95       	ret

00001898 <time_func_fan>:
    1898:	80 91 3d 05 	lds	r24, 0x053D	; 0x80053d <ssf>
    189c:	8f 5f       	subi	r24, 0xFF	; 255
    189e:	80 93 3d 05 	sts	0x053D, r24	; 0x80053d <ssf>
    18a2:	8c 33       	cpi	r24, 0x3C	; 60
    18a4:	80 f0       	brcs	.+32     	; 0x18c6 <time_func_fan+0x2e>
    18a6:	80 91 3c 05 	lds	r24, 0x053C	; 0x80053c <mmf>
    18aa:	8f 5f       	subi	r24, 0xFF	; 255
    18ac:	80 93 3c 05 	sts	0x053C, r24	; 0x80053c <mmf>
    18b0:	10 92 3d 05 	sts	0x053D, r1	; 0x80053d <ssf>
    18b4:	8c 33       	cpi	r24, 0x3C	; 60
    18b6:	38 f0       	brcs	.+14     	; 0x18c6 <time_func_fan+0x2e>
    18b8:	80 91 3e 05 	lds	r24, 0x053E	; 0x80053e <hhf>
    18bc:	8f 5f       	subi	r24, 0xFF	; 255
    18be:	80 93 3e 05 	sts	0x053E, r24	; 0x80053e <hhf>
    18c2:	10 92 3c 05 	sts	0x053C, r1	; 0x80053c <mmf>
    18c6:	08 95       	ret

000018c8 <time_func_ac>:
    18c8:	80 91 3a 05 	lds	r24, 0x053A	; 0x80053a <ssa>
    18cc:	8f 5f       	subi	r24, 0xFF	; 255
    18ce:	80 93 3a 05 	sts	0x053A, r24	; 0x80053a <ssa>
    18d2:	8c 33       	cpi	r24, 0x3C	; 60
    18d4:	80 f0       	brcs	.+32     	; 0x18f6 <time_func_ac+0x2e>
    18d6:	80 91 39 05 	lds	r24, 0x0539	; 0x800539 <mma>
    18da:	8f 5f       	subi	r24, 0xFF	; 255
    18dc:	80 93 39 05 	sts	0x0539, r24	; 0x800539 <mma>
    18e0:	10 92 3a 05 	sts	0x053A, r1	; 0x80053a <ssa>
    18e4:	8c 33       	cpi	r24, 0x3C	; 60
    18e6:	38 f0       	brcs	.+14     	; 0x18f6 <time_func_ac+0x2e>
    18e8:	80 91 3b 05 	lds	r24, 0x053B	; 0x80053b <hha>
    18ec:	8f 5f       	subi	r24, 0xFF	; 255
    18ee:	80 93 3b 05 	sts	0x053B, r24	; 0x80053b <hha>
    18f2:	10 92 39 05 	sts	0x0539, r1	; 0x800539 <mma>
    18f6:	08 95       	ret

000018f8 <__vector_8>:
    18f8:	1f 92       	push	r1
    18fa:	0f 92       	push	r0
    18fc:	0f b6       	in	r0, 0x3f	; 63
    18fe:	0f 92       	push	r0
    1900:	11 24       	eor	r1, r1
    1902:	8f 93       	push	r24
    1904:	9f 93       	push	r25
    1906:	80 91 2a 05 	lds	r24, 0x052A	; 0x80052a <Pulse>
    190a:	90 91 2b 05 	lds	r25, 0x052B	; 0x80052b <Pulse+0x1>
    190e:	01 96       	adiw	r24, 0x01	; 1
    1910:	90 93 2b 05 	sts	0x052B, r25	; 0x80052b <Pulse+0x1>
    1914:	80 93 2a 05 	sts	0x052A, r24	; 0x80052a <Pulse>
    1918:	9f 91       	pop	r25
    191a:	8f 91       	pop	r24
    191c:	0f 90       	pop	r0
    191e:	0f be       	out	0x3f, r0	; 63
    1920:	0f 90       	pop	r0
    1922:	1f 90       	pop	r1
    1924:	18 95       	reti

00001926 <init_timer>:
    1926:	87 b7       	in	r24, 0x37	; 55
    1928:	81 60       	ori	r24, 0x01	; 1
    192a:	87 bf       	out	0x37, r24	; 55
    192c:	83 b7       	in	r24, 0x33	; 51
    192e:	83 60       	ori	r24, 0x03	; 3
    1930:	83 bf       	out	0x33, r24	; 51
    1932:	08 95       	ret

00001934 <__vector_16>:
    1934:	1f 92       	push	r1
    1936:	0f 92       	push	r0
    1938:	0f b6       	in	r0, 0x3f	; 63
    193a:	0f 92       	push	r0
    193c:	11 24       	eor	r1, r1
    193e:	0b b6       	in	r0, 0x3b	; 59
    1940:	0f 92       	push	r0
    1942:	2f 93       	push	r18
    1944:	3f 93       	push	r19
    1946:	4f 93       	push	r20
    1948:	5f 93       	push	r21
    194a:	6f 93       	push	r22
    194c:	7f 93       	push	r23
    194e:	8f 93       	push	r24
    1950:	9f 93       	push	r25
    1952:	af 93       	push	r26
    1954:	bf 93       	push	r27
    1956:	ef 93       	push	r30
    1958:	ff 93       	push	r31
    195a:	80 91 10 05 	lds	r24, 0x0510	; 0x800510 <T2TickCount>
    195e:	90 91 11 05 	lds	r25, 0x0511	; 0x800511 <T2TickCount+0x1>
    1962:	01 96       	adiw	r24, 0x01	; 1
    1964:	90 93 11 05 	sts	0x0511, r25	; 0x800511 <T2TickCount+0x1>
    1968:	80 93 10 05 	sts	0x0510, r24	; 0x800510 <T2TickCount>
    196c:	84 3f       	cpi	r24, 0xF4	; 244
    196e:	91 40       	sbci	r25, 0x01	; 1
    1970:	20 f4       	brcc	.+8      	; 0x197a <__vector_16+0x46>
    1972:	80 91 62 00 	lds	r24, 0x0062	; 0x800062 <__TEXT_REGION_LENGTH__+0x7e0062>
    1976:	82 60       	ori	r24, 0x02	; 2
    1978:	03 c0       	rjmp	.+6      	; 0x1980 <__vector_16+0x4c>
    197a:	80 91 62 00 	lds	r24, 0x0062	; 0x800062 <__TEXT_REGION_LENGTH__+0x7e0062>
    197e:	8d 7f       	andi	r24, 0xFD	; 253
    1980:	80 93 62 00 	sts	0x0062, r24	; 0x800062 <__TEXT_REGION_LENGTH__+0x7e0062>
    1984:	80 91 a2 05 	lds	r24, 0x05A2	; 0x8005a2 <data_count>
    1988:	81 32       	cpi	r24, 0x21	; 33
    198a:	40 f0       	brcs	.+16     	; 0x199c <__vector_16+0x68>
    198c:	10 92 a2 05 	sts	0x05A2, r1	; 0x8005a2 <data_count>
    1990:	65 e0       	ldi	r22, 0x05	; 5
    1992:	75 e0       	ldi	r23, 0x05	; 5
    1994:	85 ef       	ldi	r24, 0xF5	; 245
    1996:	95 e0       	ldi	r25, 0x05	; 5
    1998:	0e 94 21 21 	call	0x4242	; 0x4242 <strcpy>
    199c:	80 91 a2 05 	lds	r24, 0x05A2	; 0x8005a2 <data_count>
    19a0:	88 23       	and	r24, r24
    19a2:	c9 f0       	breq	.+50     	; 0x19d6 <__vector_16+0xa2>
    19a4:	80 91 16 05 	lds	r24, 0x0516	; 0x800516 <DATATIMECOUNT>
    19a8:	90 91 17 05 	lds	r25, 0x0517	; 0x800517 <DATATIMECOUNT+0x1>
    19ac:	01 96       	adiw	r24, 0x01	; 1
    19ae:	85 36       	cpi	r24, 0x65	; 101
    19b0:	91 05       	cpc	r25, r1
    19b2:	28 f4       	brcc	.+10     	; 0x19be <__vector_16+0x8a>
    19b4:	90 93 17 05 	sts	0x0517, r25	; 0x800517 <DATATIMECOUNT+0x1>
    19b8:	80 93 16 05 	sts	0x0516, r24	; 0x800516 <DATATIMECOUNT>
    19bc:	0c c0       	rjmp	.+24     	; 0x19d6 <__vector_16+0xa2>
    19be:	10 92 17 05 	sts	0x0517, r1	; 0x800517 <DATATIMECOUNT+0x1>
    19c2:	10 92 16 05 	sts	0x0516, r1	; 0x800516 <DATATIMECOUNT>
    19c6:	10 92 a2 05 	sts	0x05A2, r1	; 0x8005a2 <data_count>
    19ca:	65 e0       	ldi	r22, 0x05	; 5
    19cc:	75 e0       	ldi	r23, 0x05	; 5
    19ce:	85 ef       	ldi	r24, 0xF5	; 245
    19d0:	95 e0       	ldi	r25, 0x05	; 5
    19d2:	0e 94 21 21 	call	0x4242	; 0x4242 <strcpy>
    19d6:	80 91 9b 05 	lds	r24, 0x059B	; 0x80059b <BUZZER2>
    19da:	90 91 9c 05 	lds	r25, 0x059C	; 0x80059c <BUZZER2+0x1>
    19de:	01 97       	sbiw	r24, 0x01	; 1
    19e0:	d9 f4       	brne	.+54     	; 0x1a18 <__vector_16+0xe4>
    19e2:	80 91 99 05 	lds	r24, 0x0599	; 0x800599 <BUZZERCNTR2>
    19e6:	90 91 9a 05 	lds	r25, 0x059A	; 0x80059a <BUZZERCNTR2+0x1>
    19ea:	01 96       	adiw	r24, 0x01	; 1
    19ec:	89 3b       	cpi	r24, 0xB9	; 185
    19ee:	2b e0       	ldi	r18, 0x0B	; 11
    19f0:	92 07       	cpc	r25, r18
    19f2:	28 f4       	brcc	.+10     	; 0x19fe <__vector_16+0xca>
    19f4:	90 93 9a 05 	sts	0x059A, r25	; 0x80059a <BUZZERCNTR2+0x1>
    19f8:	80 93 99 05 	sts	0x0599, r24	; 0x800599 <BUZZERCNTR2>
    19fc:	04 c0       	rjmp	.+8      	; 0x1a06 <__vector_16+0xd2>
    19fe:	10 92 9a 05 	sts	0x059A, r1	; 0x80059a <BUZZERCNTR2+0x1>
    1a02:	10 92 99 05 	sts	0x0599, r1	; 0x800599 <BUZZERCNTR2>
    1a06:	d9 9a       	sbi	0x1b, 1	; 27
    1a08:	80 91 99 05 	lds	r24, 0x0599	; 0x800599 <BUZZERCNTR2>
    1a0c:	90 91 9a 05 	lds	r25, 0x059A	; 0x80059a <BUZZERCNTR2+0x1>
    1a10:	85 36       	cpi	r24, 0x65	; 101
    1a12:	91 05       	cpc	r25, r1
    1a14:	08 f0       	brcs	.+2      	; 0x1a18 <__vector_16+0xe4>
    1a16:	d9 98       	cbi	0x1b, 1	; 27
    1a18:	80 91 10 05 	lds	r24, 0x0510	; 0x800510 <T2TickCount>
    1a1c:	90 91 11 05 	lds	r25, 0x0511	; 0x800511 <T2TickCount+0x1>
    1a20:	81 3d       	cpi	r24, 0xD1	; 209
    1a22:	93 40       	sbci	r25, 0x03	; 3
    1a24:	08 f4       	brcc	.+2      	; 0x1a28 <__vector_16+0xf4>
    1a26:	a8 c0       	rjmp	.+336    	; 0x1b78 <__vector_16+0x244>
    1a28:	80 91 2f 05 	lds	r24, 0x052F	; 0x80052f <ONBIT>
    1a2c:	81 30       	cpi	r24, 0x01	; 1
    1a2e:	49 f4       	brne	.+18     	; 0x1a42 <__vector_16+0x10e>
    1a30:	80 91 68 05 	lds	r24, 0x0568	; 0x800568 <ON_CNTR>
    1a34:	90 91 69 05 	lds	r25, 0x0569	; 0x800569 <ON_CNTR+0x1>
    1a38:	01 96       	adiw	r24, 0x01	; 1
    1a3a:	90 93 69 05 	sts	0x0569, r25	; 0x800569 <ON_CNTR+0x1>
    1a3e:	80 93 68 05 	sts	0x0568, r24	; 0x800568 <ON_CNTR>
    1a42:	80 91 6e 05 	lds	r24, 0x056E	; 0x80056e <FANMODE>
    1a46:	81 30       	cpi	r24, 0x01	; 1
    1a48:	21 f0       	breq	.+8      	; 0x1a52 <__vector_16+0x11e>
    1a4a:	80 91 82 05 	lds	r24, 0x0582	; 0x800582 <FANREST>
    1a4e:	81 30       	cpi	r24, 0x01	; 1
    1a50:	d9 f4       	brne	.+54     	; 0x1a88 <__vector_16+0x154>
    1a52:	22 df       	rcall	.-444    	; 0x1898 <time_func_fan>
    1a54:	80 91 2a 05 	lds	r24, 0x052A	; 0x80052a <Pulse>
    1a58:	90 91 2b 05 	lds	r25, 0x052B	; 0x80052b <Pulse+0x1>
    1a5c:	90 93 29 05 	sts	0x0529, r25	; 0x800529 <Speed1+0x1>
    1a60:	80 93 28 05 	sts	0x0528, r24	; 0x800528 <Speed1>
    1a64:	10 92 2b 05 	sts	0x052B, r1	; 0x80052b <Pulse+0x1>
    1a68:	10 92 2a 05 	sts	0x052A, r1	; 0x80052a <Pulse>
    1a6c:	80 91 35 05 	lds	r24, 0x0535	; 0x800535 <FFLT>
    1a70:	8f 5f       	subi	r24, 0xFF	; 255
    1a72:	8d 33       	cpi	r24, 0x3D	; 61
    1a74:	18 f4       	brcc	.+6      	; 0x1a7c <__vector_16+0x148>
    1a76:	80 93 35 05 	sts	0x0535, r24	; 0x800535 <FFLT>
    1a7a:	06 c0       	rjmp	.+12     	; 0x1a88 <__vector_16+0x154>
    1a7c:	8c e3       	ldi	r24, 0x3C	; 60
    1a7e:	80 93 35 05 	sts	0x0535, r24	; 0x800535 <FFLT>
    1a82:	81 e0       	ldi	r24, 0x01	; 1
    1a84:	80 93 36 05 	sts	0x0536, r24	; 0x800536 <FC>
    1a88:	90 91 80 05 	lds	r25, 0x0580	; 0x800580 <ACDELAY>
    1a8c:	21 e0       	ldi	r18, 0x01	; 1
    1a8e:	80 91 6f 05 	lds	r24, 0x056F	; 0x80056f <ACMODE>
    1a92:	81 30       	cpi	r24, 0x01	; 1
    1a94:	09 f0       	breq	.+2      	; 0x1a98 <__vector_16+0x164>
    1a96:	20 e0       	ldi	r18, 0x00	; 0
    1a98:	81 e0       	ldi	r24, 0x01	; 1
    1a9a:	30 91 81 05 	lds	r19, 0x0581	; 0x800581 <ACREST>
    1a9e:	31 30       	cpi	r19, 0x01	; 1
    1aa0:	09 f0       	breq	.+2      	; 0x1aa4 <__vector_16+0x170>
    1aa2:	80 e0       	ldi	r24, 0x00	; 0
    1aa4:	82 2b       	or	r24, r18
    1aa6:	11 f4       	brne	.+4      	; 0x1aac <__vector_16+0x178>
    1aa8:	91 30       	cpi	r25, 0x01	; 1
    1aaa:	d9 f4       	brne	.+54     	; 0x1ae2 <__vector_16+0x1ae>
    1aac:	80 91 34 05 	lds	r24, 0x0534	; 0x800534 <EXDBIT>
    1ab0:	81 30       	cpi	r24, 0x01	; 1
    1ab2:	51 f4       	brne	.+20     	; 0x1ac8 <__vector_16+0x194>
    1ab4:	80 91 26 05 	lds	r24, 0x0526	; 0x800526 <EXD>
    1ab8:	90 91 27 05 	lds	r25, 0x0527	; 0x800527 <EXD+0x1>
    1abc:	01 96       	adiw	r24, 0x01	; 1
    1abe:	90 93 27 05 	sts	0x0527, r25	; 0x800527 <EXD+0x1>
    1ac2:	80 93 26 05 	sts	0x0526, r24	; 0x800526 <EXD>
    1ac6:	0d c0       	rjmp	.+26     	; 0x1ae2 <__vector_16+0x1ae>
    1ac8:	91 11       	cpse	r25, r1
    1aca:	02 c0       	rjmp	.+4      	; 0x1ad0 <__vector_16+0x19c>
    1acc:	fd de       	rcall	.-518    	; 0x18c8 <time_func_ac>
    1ace:	09 c0       	rjmp	.+18     	; 0x1ae2 <__vector_16+0x1ae>
    1ad0:	80 91 78 05 	lds	r24, 0x0578	; 0x800578 <ssaa>
    1ad4:	90 91 79 05 	lds	r25, 0x0579	; 0x800579 <ssaa+0x1>
    1ad8:	01 96       	adiw	r24, 0x01	; 1
    1ada:	90 93 79 05 	sts	0x0579, r25	; 0x800579 <ssaa+0x1>
    1ade:	80 93 78 05 	sts	0x0578, r24	; 0x800578 <ssaa>
    1ae2:	c2 de       	rcall	.-636    	; 0x1868 <time_func>
    1ae4:	10 92 11 05 	sts	0x0511, r1	; 0x800511 <T2TickCount+0x1>
    1ae8:	10 92 10 05 	sts	0x0510, r1	; 0x800510 <T2TickCount>
    1aec:	80 91 5e 05 	lds	r24, 0x055E	; 0x80055e <FANFAULTY>
    1af0:	90 91 5f 05 	lds	r25, 0x055F	; 0x80055f <FANFAULTY+0x1>
    1af4:	01 97       	sbiw	r24, 0x01	; 1
    1af6:	51 f4       	brne	.+20     	; 0x1b0c <__vector_16+0x1d8>
    1af8:	80 91 33 05 	lds	r24, 0x0533	; 0x800533 <blink_FF>
    1afc:	8f 5f       	subi	r24, 0xFF	; 255
    1afe:	85 30       	cpi	r24, 0x05	; 5
    1b00:	18 f4       	brcc	.+6      	; 0x1b08 <__vector_16+0x1d4>
    1b02:	80 93 33 05 	sts	0x0533, r24	; 0x800533 <blink_FF>
    1b06:	02 c0       	rjmp	.+4      	; 0x1b0c <__vector_16+0x1d8>
    1b08:	10 92 33 05 	sts	0x0533, r1	; 0x800533 <blink_FF>
    1b0c:	80 91 97 05 	lds	r24, 0x0597	; 0x800597 <RESET_CNTR1>
    1b10:	90 91 98 05 	lds	r25, 0x0598	; 0x800598 <RESET_CNTR1+0x1>
    1b14:	01 96       	adiw	r24, 0x01	; 1
    1b16:	90 93 98 05 	sts	0x0598, r25	; 0x800598 <RESET_CNTR1+0x1>
    1b1a:	80 93 97 05 	sts	0x0597, r24	; 0x800597 <RESET_CNTR1>
    1b1e:	88 37       	cpi	r24, 0x78	; 120
    1b20:	91 05       	cpc	r25, r1
    1b22:	31 f4       	brne	.+12     	; 0x1b30 <__vector_16+0x1fc>
    1b24:	0e 94 f4 00 	call	0x1e8	; 0x1e8 <lcdInit>
    1b28:	10 92 98 05 	sts	0x0598, r1	; 0x800598 <RESET_CNTR1+0x1>
    1b2c:	10 92 97 05 	sts	0x0597, r1	; 0x800597 <RESET_CNTR1>
    1b30:	80 91 a0 05 	lds	r24, 0x05A0	; 0x8005a0 <FANRESET>
    1b34:	81 30       	cpi	r24, 0x01	; 1
    1b36:	71 f4       	brne	.+28     	; 0x1b54 <__vector_16+0x220>
    1b38:	80 91 9f 05 	lds	r24, 0x059F	; 0x80059f <FANRESETCNTR>
    1b3c:	8f 5f       	subi	r24, 0xFF	; 255
    1b3e:	80 93 9f 05 	sts	0x059F, r24	; 0x80059f <FANRESETCNTR>
    1b42:	8b 35       	cpi	r24, 0x5B	; 91
    1b44:	30 f0       	brcs	.+12     	; 0x1b52 <__vector_16+0x21e>
    1b46:	93 98       	cbi	0x12, 3	; 18
    1b48:	10 92 a0 05 	sts	0x05A0, r1	; 0x8005a0 <FANRESET>
    1b4c:	10 92 9f 05 	sts	0x059F, r1	; 0x80059f <FANRESETCNTR>
    1b50:	01 c0       	rjmp	.+2      	; 0x1b54 <__vector_16+0x220>
    1b52:	93 9a       	sbi	0x12, 3	; 18
    1b54:	80 91 18 06 	lds	r24, 0x0618	; 0x800618 <FHUM>
    1b58:	90 91 19 06 	lds	r25, 0x0619	; 0x800619 <FHUM+0x1>
    1b5c:	01 96       	adiw	r24, 0x01	; 1
    1b5e:	8f 35       	cpi	r24, 0x5F	; 95
    1b60:	21 e0       	ldi	r18, 0x01	; 1
    1b62:	92 07       	cpc	r25, r18
    1b64:	28 f4       	brcc	.+10     	; 0x1b70 <__vector_16+0x23c>
    1b66:	90 93 19 06 	sts	0x0619, r25	; 0x800619 <FHUM+0x1>
    1b6a:	80 93 18 06 	sts	0x0618, r24	; 0x800618 <FHUM>
    1b6e:	04 c0       	rjmp	.+8      	; 0x1b78 <__vector_16+0x244>
    1b70:	10 92 19 06 	sts	0x0619, r1	; 0x800619 <FHUM+0x1>
    1b74:	10 92 18 06 	sts	0x0618, r1	; 0x800618 <FHUM>
    1b78:	ff 91       	pop	r31
    1b7a:	ef 91       	pop	r30
    1b7c:	bf 91       	pop	r27
    1b7e:	af 91       	pop	r26
    1b80:	9f 91       	pop	r25
    1b82:	8f 91       	pop	r24
    1b84:	7f 91       	pop	r23
    1b86:	6f 91       	pop	r22
    1b88:	5f 91       	pop	r21
    1b8a:	4f 91       	pop	r20
    1b8c:	3f 91       	pop	r19
    1b8e:	2f 91       	pop	r18
    1b90:	0f 90       	pop	r0
    1b92:	0b be       	out	0x3b, r0	; 59
    1b94:	0f 90       	pop	r0
    1b96:	0f be       	out	0x3f, r0	; 63
    1b98:	0f 90       	pop	r0
    1b9a:	1f 90       	pop	r1
    1b9c:	18 95       	reti

00001b9e <disp_time_fan>:
    1b9e:	80 91 3e 05 	lds	r24, 0x053E	; 0x80053e <hhf>
    1ba2:	90 e0       	ldi	r25, 0x00	; 0
    1ba4:	0e 94 37 02 	call	0x46e	; 0x46e <disp_int>
    1ba8:	61 e0       	ldi	r22, 0x01	; 1
    1baa:	86 ea       	ldi	r24, 0xA6	; 166
    1bac:	92 e0       	ldi	r25, 0x02	; 2
    1bae:	0e 94 35 01 	call	0x26a	; 0x26a <lcdPrintData>
    1bb2:	80 91 3c 05 	lds	r24, 0x053C	; 0x80053c <mmf>
    1bb6:	90 e0       	ldi	r25, 0x00	; 0
    1bb8:	0e 94 37 02 	call	0x46e	; 0x46e <disp_int>
    1bbc:	61 e0       	ldi	r22, 0x01	; 1
    1bbe:	86 ea       	ldi	r24, 0xA6	; 166
    1bc0:	92 e0       	ldi	r25, 0x02	; 2
    1bc2:	0e 94 35 01 	call	0x26a	; 0x26a <lcdPrintData>
    1bc6:	80 91 3d 05 	lds	r24, 0x053D	; 0x80053d <ssf>
    1bca:	90 e0       	ldi	r25, 0x00	; 0
    1bcc:	0c 94 37 02 	jmp	0x46e	; 0x46e <disp_int>

00001bd0 <external_interrupt_on>:
    1bd0:	17 98       	cbi	0x02, 7	; 2
    1bd2:	83 b1       	in	r24, 0x03	; 3
    1bd4:	93 b1       	in	r25, 0x03	; 3
    1bd6:	80 68       	ori	r24, 0x80	; 128
    1bd8:	89 2b       	or	r24, r25
    1bda:	83 b9       	out	0x03, r24	; 3
    1bdc:	8a b7       	in	r24, 0x3a	; 58
    1bde:	80 68       	ori	r24, 0x80	; 128
    1be0:	8a bf       	out	0x3a, r24	; 58
    1be2:	89 b7       	in	r24, 0x39	; 57
    1be4:	80 68       	ori	r24, 0x80	; 128
    1be6:	89 bf       	out	0x39, r24	; 57
    1be8:	08 95       	ret

00001bea <special1>:
    1bea:	cf 92       	push	r12
    1bec:	df 92       	push	r13
    1bee:	ef 92       	push	r14
    1bf0:	ff 92       	push	r15
    1bf2:	0f 93       	push	r16
    1bf4:	1f 93       	push	r17
    1bf6:	cf 93       	push	r28
    1bf8:	df 93       	push	r29
    1bfa:	cd b7       	in	r28, 0x3d	; 61
    1bfc:	de b7       	in	r29, 0x3e	; 62
    1bfe:	e8 97       	sbiw	r28, 0x38	; 56
    1c00:	0f b6       	in	r0, 0x3f	; 63
    1c02:	f8 94       	cli
    1c04:	de bf       	out	0x3e, r29	; 62
    1c06:	0f be       	out	0x3f, r0	; 63
    1c08:	cd bf       	out	0x3d, r28	; 61
    1c0a:	88 e3       	ldi	r24, 0x38	; 56
    1c0c:	e6 e0       	ldi	r30, 0x06	; 6
    1c0e:	f1 e0       	ldi	r31, 0x01	; 1
    1c10:	de 01       	movw	r26, r28
    1c12:	11 96       	adiw	r26, 0x01	; 1
    1c14:	01 90       	ld	r0, Z+
    1c16:	0d 92       	st	X+, r0
    1c18:	8a 95       	dec	r24
    1c1a:	e1 f7       	brne	.-8      	; 0x1c14 <special1+0x2a>
    1c1c:	80 e4       	ldi	r24, 0x40	; 64
    1c1e:	0e 94 9e 00 	call	0x13c	; 0x13c <lcdControlWrite>
    1c22:	8e 01       	movw	r16, r28
    1c24:	0f 5f       	subi	r16, 0xFF	; 255
    1c26:	1f 4f       	sbci	r17, 0xFF	; 255
    1c28:	7e 01       	movw	r14, r28
    1c2a:	89 e3       	ldi	r24, 0x39	; 57
    1c2c:	e8 0e       	add	r14, r24
    1c2e:	f1 1c       	adc	r15, r1
    1c30:	88 e1       	ldi	r24, 0x18	; 24
    1c32:	d8 2e       	mov	r13, r24
    1c34:	9f e0       	ldi	r25, 0x0F	; 15
    1c36:	c9 2e       	mov	r12, r25
    1c38:	f8 01       	movw	r30, r16
    1c3a:	81 91       	ld	r24, Z+
    1c3c:	8f 01       	movw	r16, r30
    1c3e:	0e 94 bd 00 	call	0x17a	; 0x17a <lcdDataWrite>
    1c42:	a8 95       	wdr
    1c44:	0f b6       	in	r0, 0x3f	; 63
    1c46:	f8 94       	cli
    1c48:	a8 95       	wdr
    1c4a:	d1 bc       	out	0x21, r13	; 33
    1c4c:	0f be       	out	0x3f, r0	; 63
    1c4e:	c1 bc       	out	0x21, r12	; 33
    1c50:	0e 15       	cp	r16, r14
    1c52:	1f 05       	cpc	r17, r15
    1c54:	89 f7       	brne	.-30     	; 0x1c38 <special1+0x4e>
    1c56:	e8 96       	adiw	r28, 0x38	; 56
    1c58:	0f b6       	in	r0, 0x3f	; 63
    1c5a:	f8 94       	cli
    1c5c:	de bf       	out	0x3e, r29	; 62
    1c5e:	0f be       	out	0x3f, r0	; 63
    1c60:	cd bf       	out	0x3d, r28	; 61
    1c62:	df 91       	pop	r29
    1c64:	cf 91       	pop	r28
    1c66:	1f 91       	pop	r17
    1c68:	0f 91       	pop	r16
    1c6a:	ff 90       	pop	r15
    1c6c:	ef 90       	pop	r14
    1c6e:	df 90       	pop	r13
    1c70:	cf 90       	pop	r12
    1c72:	08 95       	ret

00001c74 <ButtonCheck_Secondary>:
    1c74:	53 b3       	in	r21, 0x13	; 19
    1c76:	43 b3       	in	r20, 0x13	; 19
    1c78:	33 b3       	in	r19, 0x13	; 19
    1c7a:	23 b3       	in	r18, 0x13	; 19
    1c7c:	85 2f       	mov	r24, r21
    1c7e:	81 70       	andi	r24, 0x01	; 1
    1c80:	90 e0       	ldi	r25, 0x00	; 0
    1c82:	42 70       	andi	r20, 0x02	; 2
    1c84:	84 0f       	add	r24, r20
    1c86:	91 1d       	adc	r25, r1
    1c88:	38 70       	andi	r19, 0x08	; 8
    1c8a:	83 0f       	add	r24, r19
    1c8c:	91 1d       	adc	r25, r1
    1c8e:	20 72       	andi	r18, 0x20	; 32
    1c90:	82 0f       	add	r24, r18
    1c92:	91 1d       	adc	r25, r1
    1c94:	03 97       	sbiw	r24, 0x03	; 3
    1c96:	09 f0       	breq	.+2      	; 0x1c9a <ButtonCheck_Secondary+0x26>
    1c98:	80 c0       	rjmp	.+256    	; 0x1d9a <ButtonCheck_Secondary+0x126>
    1c9a:	c6 9a       	sbi	0x18, 6	; 24
    1c9c:	2f ef       	ldi	r18, 0xFF	; 255
    1c9e:	34 e3       	ldi	r19, 0x34	; 52
    1ca0:	4c e0       	ldi	r20, 0x0C	; 12
    1ca2:	21 50       	subi	r18, 0x01	; 1
    1ca4:	30 40       	sbci	r19, 0x00	; 0
    1ca6:	40 40       	sbci	r20, 0x00	; 0
    1ca8:	e1 f7       	brne	.-8      	; 0x1ca2 <ButtonCheck_Secondary+0x2e>
    1caa:	00 c0       	rjmp	.+0      	; 0x1cac <ButtonCheck_Secondary+0x38>
    1cac:	00 00       	nop
    1cae:	c6 98       	cbi	0x18, 6	; 24
    1cb0:	a8 95       	wdr
    1cb2:	88 e1       	ldi	r24, 0x18	; 24
    1cb4:	9f e0       	ldi	r25, 0x0F	; 15
    1cb6:	0f b6       	in	r0, 0x3f	; 63
    1cb8:	f8 94       	cli
    1cba:	a8 95       	wdr
    1cbc:	81 bd       	out	0x21, r24	; 33
    1cbe:	0f be       	out	0x3f, r0	; 63
    1cc0:	91 bd       	out	0x21, r25	; 33
    1cc2:	c5 9a       	sbi	0x18, 5	; 24
    1cc4:	2f ef       	ldi	r18, 0xFF	; 255
    1cc6:	34 e3       	ldi	r19, 0x34	; 52
    1cc8:	4c e0       	ldi	r20, 0x0C	; 12
    1cca:	21 50       	subi	r18, 0x01	; 1
    1ccc:	30 40       	sbci	r19, 0x00	; 0
    1cce:	40 40       	sbci	r20, 0x00	; 0
    1cd0:	e1 f7       	brne	.-8      	; 0x1cca <ButtonCheck_Secondary+0x56>
    1cd2:	00 c0       	rjmp	.+0      	; 0x1cd4 <ButtonCheck_Secondary+0x60>
    1cd4:	00 00       	nop
    1cd6:	c5 98       	cbi	0x18, 5	; 24
    1cd8:	a8 95       	wdr
    1cda:	0f b6       	in	r0, 0x3f	; 63
    1cdc:	f8 94       	cli
    1cde:	a8 95       	wdr
    1ce0:	81 bd       	out	0x21, r24	; 33
    1ce2:	0f be       	out	0x3f, r0	; 63
    1ce4:	91 bd       	out	0x21, r25	; 33
    1ce6:	c2 9a       	sbi	0x18, 2	; 24
    1ce8:	2f ef       	ldi	r18, 0xFF	; 255
    1cea:	34 e3       	ldi	r19, 0x34	; 52
    1cec:	4c e0       	ldi	r20, 0x0C	; 12
    1cee:	21 50       	subi	r18, 0x01	; 1
    1cf0:	30 40       	sbci	r19, 0x00	; 0
    1cf2:	40 40       	sbci	r20, 0x00	; 0
    1cf4:	e1 f7       	brne	.-8      	; 0x1cee <ButtonCheck_Secondary+0x7a>
    1cf6:	00 c0       	rjmp	.+0      	; 0x1cf8 <ButtonCheck_Secondary+0x84>
    1cf8:	00 00       	nop
    1cfa:	c2 98       	cbi	0x18, 2	; 24
    1cfc:	a8 95       	wdr
    1cfe:	0f b6       	in	r0, 0x3f	; 63
    1d00:	f8 94       	cli
    1d02:	a8 95       	wdr
    1d04:	81 bd       	out	0x21, r24	; 33
    1d06:	0f be       	out	0x3f, r0	; 63
    1d08:	91 bd       	out	0x21, r25	; 33
    1d0a:	c0 9a       	sbi	0x18, 0	; 24
    1d0c:	2f ef       	ldi	r18, 0xFF	; 255
    1d0e:	34 e3       	ldi	r19, 0x34	; 52
    1d10:	4c e0       	ldi	r20, 0x0C	; 12
    1d12:	21 50       	subi	r18, 0x01	; 1
    1d14:	30 40       	sbci	r19, 0x00	; 0
    1d16:	40 40       	sbci	r20, 0x00	; 0
    1d18:	e1 f7       	brne	.-8      	; 0x1d12 <ButtonCheck_Secondary+0x9e>
    1d1a:	00 c0       	rjmp	.+0      	; 0x1d1c <ButtonCheck_Secondary+0xa8>
    1d1c:	00 00       	nop
    1d1e:	c0 98       	cbi	0x18, 0	; 24
    1d20:	a8 95       	wdr
    1d22:	0f b6       	in	r0, 0x3f	; 63
    1d24:	f8 94       	cli
    1d26:	a8 95       	wdr
    1d28:	81 bd       	out	0x21, r24	; 33
    1d2a:	0f be       	out	0x3f, r0	; 63
    1d2c:	91 bd       	out	0x21, r25	; 33
    1d2e:	1e 9a       	sbi	0x03, 6	; 3
    1d30:	2f ef       	ldi	r18, 0xFF	; 255
    1d32:	34 e3       	ldi	r19, 0x34	; 52
    1d34:	4c e0       	ldi	r20, 0x0C	; 12
    1d36:	21 50       	subi	r18, 0x01	; 1
    1d38:	30 40       	sbci	r19, 0x00	; 0
    1d3a:	40 40       	sbci	r20, 0x00	; 0
    1d3c:	e1 f7       	brne	.-8      	; 0x1d36 <ButtonCheck_Secondary+0xc2>
    1d3e:	00 c0       	rjmp	.+0      	; 0x1d40 <ButtonCheck_Secondary+0xcc>
    1d40:	00 00       	nop
    1d42:	1e 98       	cbi	0x03, 6	; 3
    1d44:	a8 95       	wdr
    1d46:	0f b6       	in	r0, 0x3f	; 63
    1d48:	f8 94       	cli
    1d4a:	a8 95       	wdr
    1d4c:	81 bd       	out	0x21, r24	; 33
    1d4e:	0f be       	out	0x3f, r0	; 63
    1d50:	91 bd       	out	0x21, r25	; 33
    1d52:	c4 9a       	sbi	0x18, 4	; 24
    1d54:	2f ef       	ldi	r18, 0xFF	; 255
    1d56:	34 e3       	ldi	r19, 0x34	; 52
    1d58:	4c e0       	ldi	r20, 0x0C	; 12
    1d5a:	21 50       	subi	r18, 0x01	; 1
    1d5c:	30 40       	sbci	r19, 0x00	; 0
    1d5e:	40 40       	sbci	r20, 0x00	; 0
    1d60:	e1 f7       	brne	.-8      	; 0x1d5a <ButtonCheck_Secondary+0xe6>
    1d62:	00 c0       	rjmp	.+0      	; 0x1d64 <ButtonCheck_Secondary+0xf0>
    1d64:	00 00       	nop
    1d66:	c4 98       	cbi	0x18, 4	; 24
    1d68:	a8 95       	wdr
    1d6a:	0f b6       	in	r0, 0x3f	; 63
    1d6c:	f8 94       	cli
    1d6e:	a8 95       	wdr
    1d70:	81 bd       	out	0x21, r24	; 33
    1d72:	0f be       	out	0x3f, r0	; 63
    1d74:	91 bd       	out	0x21, r25	; 33
    1d76:	db 9a       	sbi	0x1b, 3	; 27
    1d78:	2f ef       	ldi	r18, 0xFF	; 255
    1d7a:	30 e7       	ldi	r19, 0x70	; 112
    1d7c:	42 e0       	ldi	r20, 0x02	; 2
    1d7e:	21 50       	subi	r18, 0x01	; 1
    1d80:	30 40       	sbci	r19, 0x00	; 0
    1d82:	40 40       	sbci	r20, 0x00	; 0
    1d84:	e1 f7       	brne	.-8      	; 0x1d7e <ButtonCheck_Secondary+0x10a>
    1d86:	00 c0       	rjmp	.+0      	; 0x1d88 <ButtonCheck_Secondary+0x114>
    1d88:	00 00       	nop
    1d8a:	db 98       	cbi	0x1b, 3	; 27
    1d8c:	a8 95       	wdr
    1d8e:	0f b6       	in	r0, 0x3f	; 63
    1d90:	f8 94       	cli
    1d92:	a8 95       	wdr
    1d94:	81 bd       	out	0x21, r24	; 33
    1d96:	0f be       	out	0x3f, r0	; 63
    1d98:	91 bd       	out	0x21, r25	; 33
    1d9a:	08 95       	ret

00001d9c <init_devices>:
    1d9c:	82 b1       	in	r24, 0x02	; 2
    1d9e:	82 b9       	out	0x02, r24	; 2
    1da0:	e1 e6       	ldi	r30, 0x61	; 97
    1da2:	f0 e0       	ldi	r31, 0x00	; 0
    1da4:	80 81       	ld	r24, Z
    1da6:	80 83       	st	Z, r24
    1da8:	80 81       	ld	r24, Z
    1daa:	80 83       	st	Z, r24
    1dac:	83 b1       	in	r24, 0x03	; 3
    1dae:	84 61       	ori	r24, 0x14	; 20
    1db0:	83 b9       	out	0x03, r24	; 3
    1db2:	8b 9a       	sbi	0x11, 3	; 17
    1db4:	80 81       	ld	r24, Z
    1db6:	80 83       	st	Z, r24
    1db8:	82 b1       	in	r24, 0x02	; 2
    1dba:	80 66       	ori	r24, 0x60	; 96
    1dbc:	82 b9       	out	0x02, r24	; 2
    1dbe:	80 81       	ld	r24, Z
    1dc0:	82 64       	ori	r24, 0x42	; 66
    1dc2:	80 83       	st	Z, r24
    1dc4:	87 b3       	in	r24, 0x17	; 23
    1dc6:	85 6d       	ori	r24, 0xD5	; 213
    1dc8:	87 bb       	out	0x17, r24	; 23
    1dca:	84 b3       	in	r24, 0x14	; 20
    1dcc:	84 bb       	out	0x14, r24	; 20
    1dce:	85 b3       	in	r24, 0x15	; 21
    1dd0:	8b 62       	ori	r24, 0x2B	; 43
    1dd2:	85 bb       	out	0x15, r24	; 21
    1dd4:	1d 9a       	sbi	0x03, 5	; 3
    1dd6:	d3 9a       	sbi	0x1a, 3	; 26
    1dd8:	8b b3       	in	r24, 0x1b	; 27
    1dda:	8b bb       	out	0x1b, r24	; 27
    1ddc:	a4 e6       	ldi	r26, 0x64	; 100
    1dde:	b0 e0       	ldi	r27, 0x00	; 0
    1de0:	8c 91       	ld	r24, X
    1de2:	82 60       	ori	r24, 0x02	; 2
    1de4:	8c 93       	st	X, r24
    1de6:	8b 9a       	sbi	0x11, 3	; 17
    1de8:	93 98       	cbi	0x12, 3	; 18
    1dea:	a5 e6       	ldi	r26, 0x65	; 101
    1dec:	b0 e0       	ldi	r27, 0x00	; 0
    1dee:	8c 91       	ld	r24, X
    1df0:	82 60       	ori	r24, 0x02	; 2
    1df2:	8c 93       	st	X, r24
    1df4:	bf 9a       	sbi	0x17, 7	; 23
    1df6:	c5 98       	cbi	0x18, 5	; 24
    1df8:	bd 9a       	sbi	0x17, 5	; 23
    1dfa:	c5 98       	cbi	0x18, 5	; 24
    1dfc:	d1 9a       	sbi	0x1a, 1	; 26
    1dfe:	d9 9a       	sbi	0x1b, 1	; 27
    1e00:	16 9a       	sbi	0x02, 6	; 2
    1e02:	1e 98       	cbi	0x03, 6	; 3
    1e04:	be 9a       	sbi	0x17, 6	; 23
    1e06:	c6 98       	cbi	0x18, 6	; 24
    1e08:	80 81       	ld	r24, Z
    1e0a:	84 60       	ori	r24, 0x04	; 4
    1e0c:	80 83       	st	Z, r24
    1e0e:	e2 e6       	ldi	r30, 0x62	; 98
    1e10:	f0 e0       	ldi	r31, 0x00	; 0
    1e12:	80 81       	ld	r24, Z
    1e14:	84 60       	ori	r24, 0x04	; 4
    1e16:	80 83       	st	Z, r24
    1e18:	ba 9a       	sbi	0x17, 2	; 23
    1e1a:	c2 98       	cbi	0x18, 2	; 24
    1e1c:	b8 9a       	sbi	0x17, 0	; 23
    1e1e:	c0 98       	cbi	0x18, 0	; 24
    1e20:	bc 9a       	sbi	0x17, 4	; 23
    1e22:	c4 98       	cbi	0x18, 4	; 24
    1e24:	2f ef       	ldi	r18, 0xFF	; 255
    1e26:	89 e6       	ldi	r24, 0x69	; 105
    1e28:	98 e1       	ldi	r25, 0x18	; 24
    1e2a:	21 50       	subi	r18, 0x01	; 1
    1e2c:	80 40       	sbci	r24, 0x00	; 0
    1e2e:	90 40       	sbci	r25, 0x00	; 0
    1e30:	e1 f7       	brne	.-8      	; 0x1e2a <init_devices+0x8e>
    1e32:	00 c0       	rjmp	.+0      	; 0x1e34 <init_devices+0x98>
    1e34:	00 00       	nop
    1e36:	0e 94 f4 00 	call	0x1e8	; 0x1e8 <lcdInit>
    1e3a:	0e 94 93 01 	call	0x326	; 0x326 <adc_init>
    1e3e:	0e 94 33 01 	call	0x266	; 0x266 <lcdClear>
    1e42:	80 e8       	ldi	r24, 0x80	; 128
    1e44:	0e 94 9e 00 	call	0x13c	; 0x13c <lcdControlWrite>
    1e48:	64 e1       	ldi	r22, 0x14	; 20
    1e4a:	82 ed       	ldi	r24, 0xD2	; 210
    1e4c:	91 e0       	ldi	r25, 0x01	; 1
    1e4e:	0e 94 35 01 	call	0x26a	; 0x26a <lcdPrintData>
    1e52:	80 ec       	ldi	r24, 0xC0	; 192
    1e54:	0e 94 9e 00 	call	0x13c	; 0x13c <lcdControlWrite>
    1e58:	64 e1       	ldi	r22, 0x14	; 20
    1e5a:	87 ee       	ldi	r24, 0xE7	; 231
    1e5c:	91 e0       	ldi	r25, 0x01	; 1
    1e5e:	0e 94 35 01 	call	0x26a	; 0x26a <lcdPrintData>
    1e62:	84 e9       	ldi	r24, 0x94	; 148
    1e64:	0e 94 9e 00 	call	0x13c	; 0x13c <lcdControlWrite>
    1e68:	64 e1       	ldi	r22, 0x14	; 20
    1e6a:	8c ef       	ldi	r24, 0xFC	; 252
    1e6c:	91 e0       	ldi	r25, 0x01	; 1
    1e6e:	0e 94 35 01 	call	0x26a	; 0x26a <lcdPrintData>
    1e72:	84 ed       	ldi	r24, 0xD4	; 212
    1e74:	0e 94 9e 00 	call	0x13c	; 0x13c <lcdControlWrite>
    1e78:	64 e1       	ldi	r22, 0x14	; 20
    1e7a:	81 e1       	ldi	r24, 0x11	; 17
    1e7c:	92 e0       	ldi	r25, 0x02	; 2
    1e7e:	0e 94 35 01 	call	0x26a	; 0x26a <lcdPrintData>
    1e82:	0e 94 4a 01 	call	0x294	; 0x294 <disp_delay>
    1e86:	0e 94 33 01 	call	0x266	; 0x266 <lcdClear>
    1e8a:	e2 e2       	ldi	r30, 0x22	; 34
    1e8c:	f6 e0       	ldi	r31, 0x06	; 6
    1e8e:	81 e0       	ldi	r24, 0x01	; 1
    1e90:	80 83       	st	Z, r24
    1e92:	82 e0       	ldi	r24, 0x02	; 2
    1e94:	83 83       	std	Z+3, r24	; 0x03
    1e96:	83 e0       	ldi	r24, 0x03	; 3
    1e98:	86 83       	std	Z+6, r24	; 0x06
    1e9a:	85 e0       	ldi	r24, 0x05	; 5
    1e9c:	81 87       	std	Z+9, r24	; 0x09
    1e9e:	86 e0       	ldi	r24, 0x06	; 6
    1ea0:	82 87       	std	Z+10, r24	; 0x0a
    1ea2:	87 e0       	ldi	r24, 0x07	; 7
    1ea4:	83 87       	std	Z+11, r24	; 0x0b
    1ea6:	88 e0       	ldi	r24, 0x08	; 8
    1ea8:	84 87       	std	Z+12, r24	; 0x0c
    1eaa:	89 e0       	ldi	r24, 0x09	; 9
    1eac:	85 87       	std	Z+13, r24	; 0x0d
    1eae:	8a e0       	ldi	r24, 0x0A	; 10
    1eb0:	86 87       	std	Z+14, r24	; 0x0e
    1eb2:	83 e3       	ldi	r24, 0x33	; 51
    1eb4:	87 87       	std	Z+15, r24	; 0x0f
    1eb6:	8b e0       	ldi	r24, 0x0B	; 11
    1eb8:	82 8b       	std	Z+18, r24	; 0x12
    1eba:	8c e0       	ldi	r24, 0x0C	; 12
    1ebc:	85 8b       	std	Z+21, r24	; 0x15
    1ebe:	8d e0       	ldi	r24, 0x0D	; 13
    1ec0:	80 8f       	std	Z+24, r24	; 0x18
    1ec2:	8e e0       	ldi	r24, 0x0E	; 14
    1ec4:	83 8f       	std	Z+27, r24	; 0x1b
    1ec6:	8f e0       	ldi	r24, 0x0F	; 15
    1ec8:	84 8f       	std	Z+28, r24	; 0x1c
    1eca:	80 e1       	ldi	r24, 0x10	; 16
    1ecc:	85 8f       	std	Z+29, r24	; 0x1d
    1ece:	81 e1       	ldi	r24, 0x11	; 17
    1ed0:	86 8f       	std	Z+30, r24	; 0x1e
    1ed2:	82 e1       	ldi	r24, 0x12	; 18
    1ed4:	87 8f       	std	Z+31, r24	; 0x1f
    1ed6:	83 e1       	ldi	r24, 0x13	; 19
    1ed8:	80 a3       	std	Z+32, r24	; 0x20
    1eda:	84 e1       	ldi	r24, 0x14	; 20
    1edc:	81 a3       	std	Z+33, r24	; 0x21
    1ede:	85 e1       	ldi	r24, 0x15	; 21
    1ee0:	84 a3       	std	Z+36, r24	; 0x24
    1ee2:	86 e1       	ldi	r24, 0x16	; 22
    1ee4:	87 a3       	std	Z+39, r24	; 0x27
    1ee6:	87 e1       	ldi	r24, 0x17	; 23
    1ee8:	82 a7       	std	Z+42, r24	; 0x2a
    1eea:	88 e1       	ldi	r24, 0x18	; 24
    1eec:	85 a7       	std	Z+45, r24	; 0x2d
    1eee:	89 e1       	ldi	r24, 0x19	; 25
    1ef0:	80 ab       	std	Z+48, r24	; 0x30
    1ef2:	8a e1       	ldi	r24, 0x1A	; 26
    1ef4:	83 ab       	std	Z+51, r24	; 0x33
    1ef6:	8b e1       	ldi	r24, 0x1B	; 27
    1ef8:	86 ab       	std	Z+54, r24	; 0x36
    1efa:	8c e1       	ldi	r24, 0x1C	; 28
    1efc:	80 93 64 06 	sts	0x0664, r24	; 0x800664 <aE+0x42>
    1f00:	8d e1       	ldi	r24, 0x1D	; 29
    1f02:	84 af       	std	Z+60, r24	; 0x3c
    1f04:	10 dd       	rcall	.-1504   	; 0x1926 <init_timer>
    1f06:	64 de       	rcall	.-824    	; 0x1bd0 <external_interrupt_on>
    1f08:	83 e3       	ldi	r24, 0x33	; 51
    1f0a:	90 e0       	ldi	r25, 0x00	; 0
    1f0c:	e0 d8       	rcall	.-3648   	; 0x10ce <USART_Init>
    1f0e:	78 94       	sei
    1f10:	6c de       	rcall	.-808    	; 0x1bea <special1>
    1f12:	8b b3       	in	r24, 0x1b	; 27
    1f14:	8b bb       	out	0x1b, r24	; 27
    1f16:	08 95       	ret

00001f18 <take_all_setting>:
    1f18:	cf 93       	push	r28
    1f1a:	df 93       	push	r29
    1f1c:	c2 e2       	ldi	r28, 0x22	; 34
    1f1e:	d6 e0       	ldi	r29, 0x06	; 6
    1f20:	88 81       	ld	r24, Y
    1f22:	90 e0       	ldi	r25, 0x00	; 0
    1f24:	0e 94 5b 21 	call	0x42b6	; 0x42b6 <eeprom_read_byte>
    1f28:	80 93 1f 05 	sts	0x051F, r24	; 0x80051f <ROOMHIGH>
    1f2c:	8b 81       	ldd	r24, Y+3	; 0x03
    1f2e:	90 e0       	ldi	r25, 0x00	; 0
    1f30:	0e 94 5b 21 	call	0x42b6	; 0x42b6 <eeprom_read_byte>
    1f34:	80 93 8f 05 	sts	0x058F, r24	; 0x80058f <SP_DIFF>
    1f38:	8e 81       	ldd	r24, Y+6	; 0x06
    1f3a:	90 e0       	ldi	r25, 0x00	; 0
    1f3c:	0e 94 5b 21 	call	0x42b6	; 0x42b6 <eeprom_read_byte>
    1f40:	80 93 a1 05 	sts	0x05A1, r24	; 0x8005a1 <FANL>
    1f44:	89 85       	ldd	r24, Y+9	; 0x09
    1f46:	90 e0       	ldi	r25, 0x00	; 0
    1f48:	0e 94 5b 21 	call	0x42b6	; 0x42b6 <eeprom_read_byte>
    1f4c:	80 93 1d 05 	sts	0x051D, r24	; 0x80051d <FANH>
    1f50:	8a 85       	ldd	r24, Y+10	; 0x0a
    1f52:	90 e0       	ldi	r25, 0x00	; 0
    1f54:	0e 94 5b 21 	call	0x42b6	; 0x42b6 <eeprom_read_byte>
    1f58:	80 93 1c 05 	sts	0x051C, r24	; 0x80051c <FANM>
    1f5c:	8b 85       	ldd	r24, Y+11	; 0x0b
    1f5e:	90 e0       	ldi	r25, 0x00	; 0
    1f60:	0e 94 5b 21 	call	0x42b6	; 0x42b6 <eeprom_read_byte>
    1f64:	80 93 1b 05 	sts	0x051B, r24	; 0x80051b <FANS>
    1f68:	8c 85       	ldd	r24, Y+12	; 0x0c
    1f6a:	90 e0       	ldi	r25, 0x00	; 0
    1f6c:	0e 94 5b 21 	call	0x42b6	; 0x42b6 <eeprom_read_byte>
    1f70:	80 93 1a 05 	sts	0x051A, r24	; 0x80051a <FANHR>
    1f74:	8d 85       	ldd	r24, Y+13	; 0x0d
    1f76:	90 e0       	ldi	r25, 0x00	; 0
    1f78:	0e 94 5b 21 	call	0x42b6	; 0x42b6 <eeprom_read_byte>
    1f7c:	80 93 19 05 	sts	0x0519, r24	; 0x800519 <FANMR>
    1f80:	8e 85       	ldd	r24, Y+14	; 0x0e
    1f82:	90 e0       	ldi	r25, 0x00	; 0
    1f84:	0e 94 5b 21 	call	0x42b6	; 0x42b6 <eeprom_read_byte>
    1f88:	80 93 18 05 	sts	0x0518, r24	; 0x800518 <FANSR>
    1f8c:	8f 85       	ldd	r24, Y+15	; 0x0f
    1f8e:	90 e0       	ldi	r25, 0x00	; 0
    1f90:	0e 94 5b 21 	call	0x42b6	; 0x42b6 <eeprom_read_byte>
    1f94:	80 93 1e 05 	sts	0x051E, r24	; 0x80051e <TEX>
    1f98:	8c e2       	ldi	r24, 0x2C	; 44
    1f9a:	91 e0       	ldi	r25, 0x01	; 1
    1f9c:	0e 94 63 21 	call	0x42c6	; 0x42c6 <eeprom_read_word>
    1fa0:	90 93 23 05 	sts	0x0523, r25	; 0x800523 <LOWV_SET+0x1>
    1fa4:	80 93 22 05 	sts	0x0522, r24	; 0x800522 <LOWV_SET>
    1fa8:	8c ed       	ldi	r24, 0xDC	; 220
    1faa:	90 e0       	ldi	r25, 0x00	; 0
    1fac:	0e 94 63 21 	call	0x42c6	; 0x42c6 <eeprom_read_word>
    1fb0:	90 93 21 05 	sts	0x0521, r25	; 0x800521 <RECONNECT_VOLT_SET+0x1>
    1fb4:	80 93 20 05 	sts	0x0520, r24	; 0x800520 <RECONNECT_VOLT_SET>
    1fb8:	8d 89       	ldd	r24, Y+21	; 0x15
    1fba:	90 e0       	ldi	r25, 0x00	; 0
    1fbc:	0e 94 5b 21 	call	0x42b6	; 0x42b6 <eeprom_read_byte>
    1fc0:	80 93 14 05 	sts	0x0514, r24	; 0x800514 <INTERV>
    1fc4:	89 a1       	ldd	r24, Y+33	; 0x21
    1fc6:	90 e0       	ldi	r25, 0x00	; 0
    1fc8:	0e 94 5b 21 	call	0x42b6	; 0x42b6 <eeprom_read_byte>
    1fcc:	90 e0       	ldi	r25, 0x00	; 0
    1fce:	90 93 96 05 	sts	0x0596, r25	; 0x800596 <RPMWORKS+0x1>
    1fd2:	80 93 95 05 	sts	0x0595, r24	; 0x800595 <RPMWORKS>
    1fd6:	df 91       	pop	r29
    1fd8:	cf 91       	pop	r28
    1fda:	08 95       	ret

00001fdc <chk_format>:
    1fdc:	cf 93       	push	r28
    1fde:	60 91 a1 05 	lds	r22, 0x05A1	; 0x8005a1 <FANL>
    1fe2:	80 91 1f 05 	lds	r24, 0x051F	; 0x80051f <ROOMHIGH>
    1fe6:	86 17       	cp	r24, r22
    1fe8:	40 f4       	brcc	.+16     	; 0x1ffa <chk_format+0x1e>
    1fea:	6e 5f       	subi	r22, 0xFE	; 254
    1fec:	60 93 1f 05 	sts	0x051F, r22	; 0x80051f <ROOMHIGH>
    1ff0:	80 91 22 06 	lds	r24, 0x0622	; 0x800622 <aE>
    1ff4:	90 e0       	ldi	r25, 0x00	; 0
    1ff6:	0e 94 68 21 	call	0x42d0	; 0x42d0 <eeprom_write_byte>
    1ffa:	80 91 8f 05 	lds	r24, 0x058F	; 0x80058f <SP_DIFF>
    1ffe:	83 33       	cpi	r24, 0x33	; 51
    2000:	48 f0       	brcs	.+18     	; 0x2014 <chk_format+0x38>
    2002:	60 91 1f 05 	lds	r22, 0x051F	; 0x80051f <ROOMHIGH>
    2006:	60 93 8f 05 	sts	0x058F, r22	; 0x80058f <SP_DIFF>
    200a:	80 91 25 06 	lds	r24, 0x0625	; 0x800625 <aE+0x3>
    200e:	90 e0       	ldi	r25, 0x00	; 0
    2010:	0e 94 68 21 	call	0x42d0	; 0x42d0 <eeprom_write_byte>
    2014:	80 91 1f 05 	lds	r24, 0x051F	; 0x80051f <ROOMHIGH>
    2018:	85 36       	cpi	r24, 0x65	; 101
    201a:	48 f0       	brcs	.+18     	; 0x202e <chk_format+0x52>
    201c:	8e e1       	ldi	r24, 0x1E	; 30
    201e:	80 93 1f 05 	sts	0x051F, r24	; 0x80051f <ROOMHIGH>
    2022:	80 91 22 06 	lds	r24, 0x0622	; 0x800622 <aE>
    2026:	6e e1       	ldi	r22, 0x1E	; 30
    2028:	90 e0       	ldi	r25, 0x00	; 0
    202a:	0e 94 68 21 	call	0x42d0	; 0x42d0 <eeprom_write_byte>
    202e:	80 91 a1 05 	lds	r24, 0x05A1	; 0x8005a1 <FANL>
    2032:	85 36       	cpi	r24, 0x65	; 101
    2034:	48 f0       	brcs	.+18     	; 0x2048 <chk_format+0x6c>
    2036:	89 e1       	ldi	r24, 0x19	; 25
    2038:	80 93 a1 05 	sts	0x05A1, r24	; 0x8005a1 <FANL>
    203c:	80 91 25 06 	lds	r24, 0x0625	; 0x800625 <aE+0x3>
    2040:	69 e1       	ldi	r22, 0x19	; 25
    2042:	90 e0       	ldi	r25, 0x00	; 0
    2044:	0e 94 68 21 	call	0x42d0	; 0x42d0 <eeprom_write_byte>
    2048:	91 e0       	ldi	r25, 0x01	; 1
    204a:	80 91 1d 05 	lds	r24, 0x051D	; 0x80051d <FANH>
    204e:	85 36       	cpi	r24, 0x65	; 101
    2050:	08 f4       	brcc	.+2      	; 0x2054 <chk_format+0x78>
    2052:	90 e0       	ldi	r25, 0x00	; 0
    2054:	81 e0       	ldi	r24, 0x01	; 1
    2056:	20 91 1c 05 	lds	r18, 0x051C	; 0x80051c <FANM>
    205a:	25 36       	cpi	r18, 0x65	; 101
    205c:	08 f4       	brcc	.+2      	; 0x2060 <chk_format+0x84>
    205e:	80 e0       	ldi	r24, 0x00	; 0
    2060:	89 2b       	or	r24, r25
    2062:	21 f4       	brne	.+8      	; 0x206c <chk_format+0x90>
    2064:	80 91 1b 05 	lds	r24, 0x051B	; 0x80051b <FANS>
    2068:	85 36       	cpi	r24, 0x65	; 101
    206a:	d0 f0       	brcs	.+52     	; 0x20a0 <chk_format+0xc4>
    206c:	82 e0       	ldi	r24, 0x02	; 2
    206e:	80 93 1d 05 	sts	0x051D, r24	; 0x80051d <FANH>
    2072:	80 91 28 06 	lds	r24, 0x0628	; 0x800628 <aE+0x6>
    2076:	62 e0       	ldi	r22, 0x02	; 2
    2078:	90 e0       	ldi	r25, 0x00	; 0
    207a:	0e 94 68 21 	call	0x42d0	; 0x42d0 <eeprom_write_byte>
    207e:	10 92 1c 05 	sts	0x051C, r1	; 0x80051c <FANM>
    2082:	80 91 29 06 	lds	r24, 0x0629	; 0x800629 <aE+0x7>
    2086:	60 e0       	ldi	r22, 0x00	; 0
    2088:	90 e0       	ldi	r25, 0x00	; 0
    208a:	0e 94 68 21 	call	0x42d0	; 0x42d0 <eeprom_write_byte>
    208e:	8f e0       	ldi	r24, 0x0F	; 15
    2090:	80 93 1b 05 	sts	0x051B, r24	; 0x80051b <FANS>
    2094:	80 91 2a 06 	lds	r24, 0x062A	; 0x80062a <aE+0x8>
    2098:	6f e0       	ldi	r22, 0x0F	; 15
    209a:	90 e0       	ldi	r25, 0x00	; 0
    209c:	0e 94 68 21 	call	0x42d0	; 0x42d0 <eeprom_write_byte>
    20a0:	91 e0       	ldi	r25, 0x01	; 1
    20a2:	80 91 1a 05 	lds	r24, 0x051A	; 0x80051a <FANHR>
    20a6:	85 36       	cpi	r24, 0x65	; 101
    20a8:	08 f4       	brcc	.+2      	; 0x20ac <chk_format+0xd0>
    20aa:	90 e0       	ldi	r25, 0x00	; 0
    20ac:	81 e0       	ldi	r24, 0x01	; 1
    20ae:	20 91 19 05 	lds	r18, 0x0519	; 0x800519 <FANMR>
    20b2:	25 36       	cpi	r18, 0x65	; 101
    20b4:	08 f4       	brcc	.+2      	; 0x20b8 <chk_format+0xdc>
    20b6:	80 e0       	ldi	r24, 0x00	; 0
    20b8:	89 2b       	or	r24, r25
    20ba:	21 f4       	brne	.+8      	; 0x20c4 <chk_format+0xe8>
    20bc:	80 91 18 05 	lds	r24, 0x0518	; 0x800518 <FANSR>
    20c0:	85 36       	cpi	r24, 0x65	; 101
    20c2:	c8 f0       	brcs	.+50     	; 0x20f6 <chk_format+0x11a>
    20c4:	10 92 1a 05 	sts	0x051A, r1	; 0x80051a <FANHR>
    20c8:	80 91 2b 06 	lds	r24, 0x062B	; 0x80062b <aE+0x9>
    20cc:	60 e0       	ldi	r22, 0x00	; 0
    20ce:	90 e0       	ldi	r25, 0x00	; 0
    20d0:	0e 94 68 21 	call	0x42d0	; 0x42d0 <eeprom_write_byte>
    20d4:	cf e0       	ldi	r28, 0x0F	; 15
    20d6:	c0 93 19 05 	sts	0x0519, r28	; 0x800519 <FANMR>
    20da:	80 91 2c 06 	lds	r24, 0x062C	; 0x80062c <aE+0xa>
    20de:	6f e0       	ldi	r22, 0x0F	; 15
    20e0:	90 e0       	ldi	r25, 0x00	; 0
    20e2:	0e 94 68 21 	call	0x42d0	; 0x42d0 <eeprom_write_byte>
    20e6:	c0 93 18 05 	sts	0x0518, r28	; 0x800518 <FANSR>
    20ea:	80 91 2d 06 	lds	r24, 0x062D	; 0x80062d <aE+0xb>
    20ee:	6f e0       	ldi	r22, 0x0F	; 15
    20f0:	90 e0       	ldi	r25, 0x00	; 0
    20f2:	0e 94 68 21 	call	0x42d0	; 0x42d0 <eeprom_write_byte>
    20f6:	80 91 1e 05 	lds	r24, 0x051E	; 0x80051e <TEX>
    20fa:	85 36       	cpi	r24, 0x65	; 101
    20fc:	48 f0       	brcs	.+18     	; 0x2110 <chk_format+0x134>
    20fe:	8a e2       	ldi	r24, 0x2A	; 42
    2100:	80 93 1e 05 	sts	0x051E, r24	; 0x80051e <TEX>
    2104:	80 91 2e 06 	lds	r24, 0x062E	; 0x80062e <aE+0xc>
    2108:	6a e2       	ldi	r22, 0x2A	; 42
    210a:	90 e0       	ldi	r25, 0x00	; 0
    210c:	0e 94 68 21 	call	0x42d0	; 0x42d0 <eeprom_write_byte>
    2110:	80 91 14 05 	lds	r24, 0x0514	; 0x800514 <INTERV>
    2114:	88 33       	cpi	r24, 0x38	; 56
    2116:	48 f0       	brcs	.+18     	; 0x212a <chk_format+0x14e>
    2118:	8f e0       	ldi	r24, 0x0F	; 15
    211a:	80 93 14 05 	sts	0x0514, r24	; 0x800514 <INTERV>
    211e:	80 91 34 06 	lds	r24, 0x0634	; 0x800634 <aE+0x12>
    2122:	6f e0       	ldi	r22, 0x0F	; 15
    2124:	90 e0       	ldi	r25, 0x00	; 0
    2126:	0e 94 68 21 	call	0x42d0	; 0x42d0 <eeprom_write_byte>
    212a:	80 91 95 05 	lds	r24, 0x0595	; 0x800595 <RPMWORKS>
    212e:	90 91 96 05 	lds	r25, 0x0596	; 0x800596 <RPMWORKS+0x1>
    2132:	03 97       	sbiw	r24, 0x03	; 3
    2134:	6c f0       	brlt	.+26     	; 0x2150 <chk_format+0x174>
    2136:	81 e0       	ldi	r24, 0x01	; 1
    2138:	90 e0       	ldi	r25, 0x00	; 0
    213a:	90 93 96 05 	sts	0x0596, r25	; 0x800596 <RPMWORKS+0x1>
    213e:	80 93 95 05 	sts	0x0595, r24	; 0x800595 <RPMWORKS>
    2142:	80 91 40 06 	lds	r24, 0x0640	; 0x800640 <aE+0x1e>
    2146:	61 e0       	ldi	r22, 0x01	; 1
    2148:	90 e0       	ldi	r25, 0x00	; 0
    214a:	cf 91       	pop	r28
    214c:	0c 94 68 21 	jmp	0x42d0	; 0x42d0 <eeprom_write_byte>
    2150:	cf 91       	pop	r28
    2152:	08 95       	ret

00002154 <init_internaleeprom>:
    2154:	cf 93       	push	r28
    2156:	df 93       	push	r29
    2158:	c2 e2       	ldi	r28, 0x22	; 34
    215a:	d6 e0       	ldi	r29, 0x06	; 6
    215c:	88 81       	ld	r24, Y
    215e:	6e e1       	ldi	r22, 0x1E	; 30
    2160:	90 e0       	ldi	r25, 0x00	; 0
    2162:	0e 94 68 21 	call	0x42d0	; 0x42d0 <eeprom_write_byte>
    2166:	8b 81       	ldd	r24, Y+3	; 0x03
    2168:	63 e2       	ldi	r22, 0x23	; 35
    216a:	90 e0       	ldi	r25, 0x00	; 0
    216c:	0e 94 68 21 	call	0x42d0	; 0x42d0 <eeprom_write_byte>
    2170:	8e 81       	ldd	r24, Y+6	; 0x06
    2172:	6c e1       	ldi	r22, 0x1C	; 28
    2174:	90 e0       	ldi	r25, 0x00	; 0
    2176:	0e 94 68 21 	call	0x42d0	; 0x42d0 <eeprom_write_byte>
    217a:	89 85       	ldd	r24, Y+9	; 0x09
    217c:	62 e0       	ldi	r22, 0x02	; 2
    217e:	90 e0       	ldi	r25, 0x00	; 0
    2180:	0e 94 68 21 	call	0x42d0	; 0x42d0 <eeprom_write_byte>
    2184:	8a 85       	ldd	r24, Y+10	; 0x0a
    2186:	60 e0       	ldi	r22, 0x00	; 0
    2188:	90 e0       	ldi	r25, 0x00	; 0
    218a:	0e 94 68 21 	call	0x42d0	; 0x42d0 <eeprom_write_byte>
    218e:	8b 85       	ldd	r24, Y+11	; 0x0b
    2190:	60 e0       	ldi	r22, 0x00	; 0
    2192:	90 e0       	ldi	r25, 0x00	; 0
    2194:	0e 94 68 21 	call	0x42d0	; 0x42d0 <eeprom_write_byte>
    2198:	8c 85       	ldd	r24, Y+12	; 0x0c
    219a:	60 e0       	ldi	r22, 0x00	; 0
    219c:	90 e0       	ldi	r25, 0x00	; 0
    219e:	0e 94 68 21 	call	0x42d0	; 0x42d0 <eeprom_write_byte>
    21a2:	8d 85       	ldd	r24, Y+13	; 0x0d
    21a4:	6f e0       	ldi	r22, 0x0F	; 15
    21a6:	90 e0       	ldi	r25, 0x00	; 0
    21a8:	0e 94 68 21 	call	0x42d0	; 0x42d0 <eeprom_write_byte>
    21ac:	8e 85       	ldd	r24, Y+14	; 0x0e
    21ae:	60 e0       	ldi	r22, 0x00	; 0
    21b0:	90 e0       	ldi	r25, 0x00	; 0
    21b2:	0e 94 68 21 	call	0x42d0	; 0x42d0 <eeprom_write_byte>
    21b6:	8f 85       	ldd	r24, Y+15	; 0x0f
    21b8:	6a e2       	ldi	r22, 0x2A	; 42
    21ba:	90 e0       	ldi	r25, 0x00	; 0
    21bc:	0e 94 68 21 	call	0x42d0	; 0x42d0 <eeprom_write_byte>
    21c0:	8d 89       	ldd	r24, Y+21	; 0x15
    21c2:	6f e0       	ldi	r22, 0x0F	; 15
    21c4:	90 e0       	ldi	r25, 0x00	; 0
    21c6:	0e 94 68 21 	call	0x42d0	; 0x42d0 <eeprom_write_byte>
    21ca:	89 a1       	ldd	r24, Y+33	; 0x21
    21cc:	61 e0       	ldi	r22, 0x01	; 1
    21ce:	90 e0       	ldi	r25, 0x00	; 0
    21d0:	0e 94 68 21 	call	0x42d0	; 0x42d0 <eeprom_write_byte>
    21d4:	60 ee       	ldi	r22, 0xE0	; 224
    21d6:	71 e0       	ldi	r23, 0x01	; 1
    21d8:	8c e2       	ldi	r24, 0x2C	; 44
    21da:	91 e0       	ldi	r25, 0x01	; 1
    21dc:	0e 94 75 21 	call	0x42ea	; 0x42ea <eeprom_write_word>
    21e0:	6a ee       	ldi	r22, 0xEA	; 234
    21e2:	71 e0       	ldi	r23, 0x01	; 1
    21e4:	8c ed       	ldi	r24, 0xDC	; 220
    21e6:	90 e0       	ldi	r25, 0x00	; 0
    21e8:	df 91       	pop	r29
    21ea:	cf 91       	pop	r28
    21ec:	0c 94 75 21 	jmp	0x42ea	; 0x42ea <eeprom_write_word>

000021f0 <common_alarm>:
    21f0:	91 e0       	ldi	r25, 0x01	; 1
    21f2:	80 91 2e 05 	lds	r24, 0x052E	; 0x80052e <FJAM>
    21f6:	81 30       	cpi	r24, 0x01	; 1
    21f8:	09 f0       	breq	.+2      	; 0x21fc <common_alarm+0xc>
    21fa:	90 e0       	ldi	r25, 0x00	; 0
    21fc:	81 e0       	ldi	r24, 0x01	; 1
    21fe:	20 91 31 05 	lds	r18, 0x0531	; 0x800531 <FLVD>
    2202:	21 30       	cpi	r18, 0x01	; 1
    2204:	09 f0       	breq	.+2      	; 0x2208 <common_alarm+0x18>
    2206:	80 e0       	ldi	r24, 0x00	; 0
    2208:	89 2b       	or	r24, r25
    220a:	91 e0       	ldi	r25, 0x01	; 1
    220c:	20 91 6c 05 	lds	r18, 0x056C	; 0x80056c <EXTR_HIGH>
    2210:	21 30       	cpi	r18, 0x01	; 1
    2212:	09 f0       	breq	.+2      	; 0x2216 <common_alarm+0x26>
    2214:	90 e0       	ldi	r25, 0x00	; 0
    2216:	98 2b       	or	r25, r24
    2218:	81 e0       	ldi	r24, 0x01	; 1
    221a:	20 91 94 05 	lds	r18, 0x0594	; 0x800594 <FIRE_ALARM>
    221e:	21 30       	cpi	r18, 0x01	; 1
    2220:	09 f0       	breq	.+2      	; 0x2224 <common_alarm+0x34>
    2222:	80 e0       	ldi	r24, 0x00	; 0
    2224:	89 2b       	or	r24, r25
    2226:	31 f4       	brne	.+12     	; 0x2234 <common_alarm+0x44>
    2228:	80 91 5e 05 	lds	r24, 0x055E	; 0x80055e <FANFAULTY>
    222c:	90 91 5f 05 	lds	r25, 0x055F	; 0x80055f <FANFAULTY+0x1>
    2230:	01 97       	sbiw	r24, 0x01	; 1
    2232:	11 f4       	brne	.+4      	; 0x2238 <common_alarm+0x48>
    2234:	c4 9a       	sbi	0x18, 4	; 24
    2236:	08 95       	ret
    2238:	c4 98       	cbi	0x18, 4	; 24
    223a:	08 95       	ret

0000223c <fjam_alarm_check>:
    223c:	03 9b       	sbis	0x00, 3	; 0
    223e:	11 c0       	rjmp	.+34     	; 0x2262 <fjam_alarm_check+0x26>
    2240:	80 91 93 05 	lds	r24, 0x0593	; 0x800593 <fjamcntr1>
    2244:	8f 5f       	subi	r24, 0xFF	; 255
    2246:	80 93 93 05 	sts	0x0593, r24	; 0x800593 <fjamcntr1>
    224a:	83 33       	cpi	r24, 0x33	; 51
    224c:	c8 f0       	brcs	.+50     	; 0x2280 <fjam_alarm_check+0x44>
    224e:	81 e0       	ldi	r24, 0x01	; 1
    2250:	80 93 2e 05 	sts	0x052E, r24	; 0x80052e <FJAM>
    2254:	10 92 92 05 	sts	0x0592, r1	; 0x800592 <fjamcntr2>
    2258:	88 e7       	ldi	r24, 0x78	; 120
    225a:	80 93 93 05 	sts	0x0593, r24	; 0x800593 <fjamcntr1>
    225e:	1e 98       	cbi	0x03, 6	; 3
    2260:	08 95       	ret
    2262:	80 91 92 05 	lds	r24, 0x0592	; 0x800592 <fjamcntr2>
    2266:	8f 5f       	subi	r24, 0xFF	; 255
    2268:	80 93 92 05 	sts	0x0592, r24	; 0x800592 <fjamcntr2>
    226c:	85 31       	cpi	r24, 0x15	; 21
    226e:	40 f0       	brcs	.+16     	; 0x2280 <fjam_alarm_check+0x44>
    2270:	10 92 2e 05 	sts	0x052E, r1	; 0x80052e <FJAM>
    2274:	10 92 93 05 	sts	0x0593, r1	; 0x800593 <fjamcntr1>
    2278:	88 e7       	ldi	r24, 0x78	; 120
    227a:	80 93 92 05 	sts	0x0592, r24	; 0x800592 <fjamcntr2>
    227e:	1e 9a       	sbi	0x03, 6	; 3
    2280:	08 95       	ret

00002282 <operation_alarm_fan>:
    2282:	80 91 95 05 	lds	r24, 0x0595	; 0x800595 <RPMWORKS>
    2286:	90 91 96 05 	lds	r25, 0x0596	; 0x800596 <RPMWORKS+0x1>
    228a:	81 30       	cpi	r24, 0x01	; 1
    228c:	91 05       	cpc	r25, r1
    228e:	d1 f4       	brne	.+52     	; 0x22c4 <operation_alarm_fan+0x42>
    2290:	20 91 6e 05 	lds	r18, 0x056E	; 0x80056e <FANMODE>
    2294:	21 30       	cpi	r18, 0x01	; 1
    2296:	d1 f4       	brne	.+52     	; 0x22cc <operation_alarm_fan+0x4a>
    2298:	20 91 82 05 	lds	r18, 0x0582	; 0x800582 <FANREST>
    229c:	21 11       	cpse	r18, r1
    229e:	16 c0       	rjmp	.+44     	; 0x22cc <operation_alarm_fan+0x4a>
    22a0:	20 91 36 05 	lds	r18, 0x0536	; 0x800536 <FC>
    22a4:	21 30       	cpi	r18, 0x01	; 1
    22a6:	91 f4       	brne	.+36     	; 0x22cc <operation_alarm_fan+0x4a>
    22a8:	20 91 5c 05 	lds	r18, 0x055C	; 0x80055c <RPM>
    22ac:	30 91 5d 05 	lds	r19, 0x055D	; 0x80055d <RPM+0x1>
    22b0:	24 36       	cpi	r18, 0x64	; 100
    22b2:	31 05       	cpc	r19, r1
    22b4:	30 f4       	brcc	.+12     	; 0x22c2 <operation_alarm_fan+0x40>
    22b6:	c5 9a       	sbi	0x18, 5	; 24
    22b8:	90 93 5f 05 	sts	0x055F, r25	; 0x80055f <FANFAULTY+0x1>
    22bc:	80 93 5e 05 	sts	0x055E, r24	; 0x80055e <FANFAULTY>
    22c0:	08 95       	ret
    22c2:	c5 98       	cbi	0x18, 5	; 24
    22c4:	10 92 5f 05 	sts	0x055F, r1	; 0x80055f <FANFAULTY+0x1>
    22c8:	10 92 5e 05 	sts	0x055E, r1	; 0x80055e <FANFAULTY>
    22cc:	08 95       	ret

000022ce <check_reset_fan>:
    22ce:	20 91 3c 05 	lds	r18, 0x053C	; 0x80053c <mmf>
    22d2:	82 2f       	mov	r24, r18
    22d4:	65 e0       	ldi	r22, 0x05	; 5
    22d6:	0e 94 f8 20 	call	0x41f0	; 0x41f0 <__udivmodqi4>
    22da:	91 11       	cpse	r25, r1
    22dc:	16 c0       	rjmp	.+44     	; 0x230a <check_reset_fan+0x3c>
    22de:	22 23       	and	r18, r18
    22e0:	a1 f0       	breq	.+40     	; 0x230a <check_reset_fan+0x3c>
    22e2:	80 91 3d 05 	lds	r24, 0x053D	; 0x80053d <ssf>
    22e6:	81 11       	cpse	r24, r1
    22e8:	10 c0       	rjmp	.+32     	; 0x230a <check_reset_fan+0x3c>
    22ea:	80 91 95 05 	lds	r24, 0x0595	; 0x800595 <RPMWORKS>
    22ee:	90 91 96 05 	lds	r25, 0x0596	; 0x800596 <RPMWORKS+0x1>
    22f2:	01 97       	sbiw	r24, 0x01	; 1
    22f4:	51 f4       	brne	.+20     	; 0x230a <check_reset_fan+0x3c>
    22f6:	80 91 5c 05 	lds	r24, 0x055C	; 0x80055c <RPM>
    22fa:	90 91 5d 05 	lds	r25, 0x055D	; 0x80055d <RPM+0x1>
    22fe:	84 36       	cpi	r24, 0x64	; 100
    2300:	91 05       	cpc	r25, r1
    2302:	18 f4       	brcc	.+6      	; 0x230a <check_reset_fan+0x3c>
    2304:	81 e0       	ldi	r24, 0x01	; 1
    2306:	80 93 a0 05 	sts	0x05A0, r24	; 0x8005a0 <FANRESET>
    230a:	08 95       	ret

0000230c <Pwm_Step>:
    230c:	cf 93       	push	r28
    230e:	df 93       	push	r29
    2310:	20 91 1f 05 	lds	r18, 0x051F	; 0x80051f <ROOMHIGH>
    2314:	30 e0       	ldi	r19, 0x00	; 0
    2316:	40 91 8d 05 	lds	r20, 0x058D	; 0x80058d <TROOM>
    231a:	50 91 8e 05 	lds	r21, 0x058E	; 0x80058e <TROOM+0x1>
    231e:	42 1b       	sub	r20, r18
    2320:	53 0b       	sbc	r21, r19
    2322:	64 e6       	ldi	r22, 0x64	; 100
    2324:	64 9f       	mul	r22, r20
    2326:	c0 01       	movw	r24, r0
    2328:	65 9f       	mul	r22, r21
    232a:	90 0d       	add	r25, r0
    232c:	11 24       	eor	r1, r1
    232e:	60 91 8f 05 	lds	r22, 0x058F	; 0x80058f <SP_DIFF>
    2332:	70 e0       	ldi	r23, 0x00	; 0
    2334:	62 1b       	sub	r22, r18
    2336:	73 0b       	sbc	r23, r19
    2338:	0e 94 04 21 	call	0x4208	; 0x4208 <__udivmodhi4>
    233c:	eb 01       	movw	r28, r22
    233e:	ca 56       	subi	r28, 0x6A	; 106
    2340:	df 4f       	sbci	r29, 0xFF	; 255
    2342:	c6 34       	cpi	r28, 0x46	; 70
    2344:	d1 05       	cpc	r29, r1
    2346:	38 f0       	brcs	.+14     	; 0x2356 <Pwm_Step+0x4a>
    2348:	cf 3f       	cpi	r28, 0xFF	; 255
    234a:	d1 05       	cpc	r29, r1
    234c:	31 f0       	breq	.+12     	; 0x235a <Pwm_Step+0x4e>
    234e:	28 f0       	brcs	.+10     	; 0x235a <Pwm_Step+0x4e>
    2350:	cf ef       	ldi	r28, 0xFF	; 255
    2352:	d0 e0       	ldi	r29, 0x00	; 0
    2354:	02 c0       	rjmp	.+4      	; 0x235a <Pwm_Step+0x4e>
    2356:	c6 e9       	ldi	r28, 0x96	; 150
    2358:	d0 e0       	ldi	r29, 0x00	; 0
    235a:	c3 bd       	out	0x23, r28	; 35
    235c:	80 91 3c 05 	lds	r24, 0x053C	; 0x80053c <mmf>
    2360:	82 30       	cpi	r24, 0x02	; 2
    2362:	18 f4       	brcc	.+6      	; 0x236a <Pwm_Step+0x5e>
    2364:	80 91 43 05 	lds	r24, 0x0543	; 0x800543 <hh>
    2368:	81 11       	cpse	r24, r1
    236a:	8b df       	rcall	.-234    	; 0x2282 <operation_alarm_fan>
    236c:	80 91 3c 05 	lds	r24, 0x053C	; 0x80053c <mmf>
    2370:	82 30       	cpi	r24, 0x02	; 2
    2372:	20 f4       	brcc	.+8      	; 0x237c <Pwm_Step+0x70>
    2374:	80 91 43 05 	lds	r24, 0x0543	; 0x800543 <hh>
    2378:	88 23       	and	r24, r24
    237a:	31 f0       	breq	.+12     	; 0x2388 <Pwm_Step+0x7c>
    237c:	c7 3e       	cpi	r28, 0xE7	; 231
    237e:	d1 05       	cpc	r29, r1
    2380:	18 f0       	brcs	.+6      	; 0x2388 <Pwm_Step+0x7c>
    2382:	df 91       	pop	r29
    2384:	cf 91       	pop	r28
    2386:	5a cf       	rjmp	.-332    	; 0x223c <fjam_alarm_check>
    2388:	df 91       	pop	r29
    238a:	cf 91       	pop	r28
    238c:	08 95       	ret

0000238e <FAN_timeover>:
    238e:	90 91 3d 05 	lds	r25, 0x053D	; 0x80053d <ssf>
    2392:	80 91 1b 05 	lds	r24, 0x051B	; 0x80051b <FANS>
    2396:	98 17       	cp	r25, r24
    2398:	80 f0       	brcs	.+32     	; 0x23ba <FAN_timeover+0x2c>
    239a:	90 91 3c 05 	lds	r25, 0x053C	; 0x80053c <mmf>
    239e:	80 91 1c 05 	lds	r24, 0x051C	; 0x80051c <FANM>
    23a2:	98 17       	cp	r25, r24
    23a4:	50 f0       	brcs	.+20     	; 0x23ba <FAN_timeover+0x2c>
    23a6:	81 e0       	ldi	r24, 0x01	; 1
    23a8:	90 e0       	ldi	r25, 0x00	; 0
    23aa:	30 91 3e 05 	lds	r19, 0x053E	; 0x80053e <hhf>
    23ae:	20 91 1d 05 	lds	r18, 0x051D	; 0x80051d <FANH>
    23b2:	32 17       	cp	r19, r18
    23b4:	20 f4       	brcc	.+8      	; 0x23be <FAN_timeover+0x30>
    23b6:	80 e0       	ldi	r24, 0x00	; 0
    23b8:	08 95       	ret
    23ba:	80 e0       	ldi	r24, 0x00	; 0
    23bc:	90 e0       	ldi	r25, 0x00	; 0
    23be:	08 95       	ret

000023c0 <FAN_timeover_rest>:
    23c0:	90 91 3d 05 	lds	r25, 0x053D	; 0x80053d <ssf>
    23c4:	80 91 18 05 	lds	r24, 0x0518	; 0x800518 <FANSR>
    23c8:	89 17       	cp	r24, r25
    23ca:	80 f4       	brcc	.+32     	; 0x23ec <FAN_timeover_rest+0x2c>
    23cc:	90 91 3c 05 	lds	r25, 0x053C	; 0x80053c <mmf>
    23d0:	80 91 19 05 	lds	r24, 0x0519	; 0x800519 <FANMR>
    23d4:	98 17       	cp	r25, r24
    23d6:	50 f0       	brcs	.+20     	; 0x23ec <FAN_timeover_rest+0x2c>
    23d8:	81 e0       	ldi	r24, 0x01	; 1
    23da:	90 e0       	ldi	r25, 0x00	; 0
    23dc:	30 91 3e 05 	lds	r19, 0x053E	; 0x80053e <hhf>
    23e0:	20 91 1a 05 	lds	r18, 0x051A	; 0x80051a <FANHR>
    23e4:	32 17       	cp	r19, r18
    23e6:	20 f4       	brcc	.+8      	; 0x23f0 <FAN_timeover_rest+0x30>
    23e8:	80 e0       	ldi	r24, 0x00	; 0
    23ea:	08 95       	ret
    23ec:	80 e0       	ldi	r24, 0x00	; 0
    23ee:	90 e0       	ldi	r25, 0x00	; 0
    23f0:	08 95       	ret

000023f2 <fan_on>:
    23f2:	0e 94 73 00 	call	0xe6	; 0xe6 <pwm_init>
    23f6:	10 92 3c 05 	sts	0x053C, r1	; 0x80053c <mmf>
    23fa:	10 92 3d 05 	sts	0x053D, r1	; 0x80053d <ssf>
    23fe:	10 92 3e 05 	sts	0x053E, r1	; 0x80053e <hhf>
    2402:	81 e0       	ldi	r24, 0x01	; 1
    2404:	80 93 6e 05 	sts	0x056E, r24	; 0x80056e <FANMODE>
    2408:	10 92 35 05 	sts	0x0535, r1	; 0x800535 <FFLT>
    240c:	c6 9a       	sbi	0x18, 6	; 24
    240e:	08 95       	ret

00002410 <fan_off>:
    2410:	c7 98       	cbi	0x18, 7	; 24
    2412:	c6 98       	cbi	0x18, 6	; 24
    2414:	10 92 3c 05 	sts	0x053C, r1	; 0x80053c <mmf>
    2418:	10 92 3d 05 	sts	0x053D, r1	; 0x80053d <ssf>
    241c:	10 92 3e 05 	sts	0x053E, r1	; 0x80053e <hhf>
    2420:	81 e0       	ldi	r24, 0x01	; 1
    2422:	80 93 82 05 	sts	0x0582, r24	; 0x800582 <FANREST>
    2426:	0e 94 80 00 	call	0x100	; 0x100 <pwm_disruct>
    242a:	c7 98       	cbi	0x18, 7	; 24
    242c:	10 92 36 05 	sts	0x0536, r1	; 0x800536 <FC>
    2430:	10 92 29 05 	sts	0x0529, r1	; 0x800529 <Speed1+0x1>
    2434:	10 92 28 05 	sts	0x0528, r1	; 0x800528 <Speed1>
    2438:	10 92 93 05 	sts	0x0593, r1	; 0x800593 <fjamcntr1>
    243c:	10 92 92 05 	sts	0x0592, r1	; 0x800592 <fjamcntr2>
    2440:	10 92 25 05 	sts	0x0525, r1	; 0x800525 <FJAMCNTR+0x1>
    2444:	10 92 24 05 	sts	0x0524, r1	; 0x800524 <FJAMCNTR>
    2448:	08 95       	ret

0000244a <fan_off_all>:
    244a:	10 92 6e 05 	sts	0x056E, r1	; 0x80056e <FANMODE>
    244e:	10 92 36 05 	sts	0x0536, r1	; 0x800536 <FC>
    2452:	10 92 25 05 	sts	0x0525, r1	; 0x800525 <FJAMCNTR+0x1>
    2456:	10 92 24 05 	sts	0x0524, r1	; 0x800524 <FJAMCNTR>
    245a:	c7 98       	cbi	0x18, 7	; 24
    245c:	d9 df       	rcall	.-78     	; 0x2410 <fan_off>
    245e:	10 92 82 05 	sts	0x0582, r1	; 0x800582 <FANREST>
    2462:	10 92 93 05 	sts	0x0593, r1	; 0x800593 <fjamcntr1>
    2466:	10 92 92 05 	sts	0x0592, r1	; 0x800592 <fjamcntr2>
    246a:	10 92 3c 05 	sts	0x053C, r1	; 0x80053c <mmf>
    246e:	10 92 3d 05 	sts	0x053D, r1	; 0x80053d <ssf>
    2472:	10 92 3e 05 	sts	0x053E, r1	; 0x80053e <hhf>
    2476:	10 92 2f 05 	sts	0x052F, r1	; 0x80052f <ONBIT>
    247a:	10 92 69 05 	sts	0x0569, r1	; 0x800569 <ON_CNTR+0x1>
    247e:	10 92 68 05 	sts	0x0568, r1	; 0x800568 <ON_CNTR>
    2482:	08 95       	ret

00002484 <Customized_fan_run>:
    2484:	80 91 a1 05 	lds	r24, 0x05A1	; 0x8005a1 <FANL>
    2488:	90 e0       	ldi	r25, 0x00	; 0
    248a:	20 91 8d 05 	lds	r18, 0x058D	; 0x80058d <TROOM>
    248e:	30 91 8e 05 	lds	r19, 0x058E	; 0x80058e <TROOM+0x1>
    2492:	82 17       	cp	r24, r18
    2494:	93 07       	cpc	r25, r19
    2496:	a0 f0       	brcs	.+40     	; 0x24c0 <Customized_fan_run+0x3c>
    2498:	bb df       	rcall	.-138    	; 0x2410 <fan_off>
    249a:	10 92 3c 05 	sts	0x053C, r1	; 0x80053c <mmf>
    249e:	10 92 3d 05 	sts	0x053D, r1	; 0x80053d <ssf>
    24a2:	10 92 3e 05 	sts	0x053E, r1	; 0x80053e <hhf>
    24a6:	10 92 82 05 	sts	0x0582, r1	; 0x800582 <FANREST>
    24aa:	10 92 80 05 	sts	0x0580, r1	; 0x800580 <ACDELAY>
    24ae:	10 92 36 05 	sts	0x0536, r1	; 0x800536 <FC>
    24b2:	10 92 6e 05 	sts	0x056E, r1	; 0x80056e <FANMODE>
    24b6:	10 92 5f 05 	sts	0x055F, r1	; 0x80055f <FANFAULTY+0x1>
    24ba:	10 92 5e 05 	sts	0x055E, r1	; 0x80055e <FANFAULTY>
    24be:	08 95       	ret
    24c0:	66 df       	rcall	.-308    	; 0x238e <FAN_timeover>
    24c2:	01 97       	sbiw	r24, 0x01	; 1
    24c4:	09 f4       	brne	.+2      	; 0x24c8 <Customized_fan_run+0x44>
    24c6:	a4 cf       	rjmp	.-184    	; 0x2410 <fan_off>
    24c8:	21 cf       	rjmp	.-446    	; 0x230c <Pwm_Step>

000024ca <fan_func_Robi>:
    24ca:	20 91 8d 05 	lds	r18, 0x058D	; 0x80058d <TROOM>
    24ce:	30 91 8e 05 	lds	r19, 0x058E	; 0x80058e <TROOM+0x1>
    24d2:	80 91 8b 05 	lds	r24, 0x058B	; 0x80058b <TOUT>
    24d6:	90 91 8c 05 	lds	r25, 0x058C	; 0x80058c <TOUT+0x1>
    24da:	28 17       	cp	r18, r24
    24dc:	39 07       	cpc	r19, r25
    24de:	38 f0       	brcs	.+14     	; 0x24ee <fan_func_Robi+0x24>
    24e0:	10 92 65 05 	sts	0x0565, r1	; 0x800565 <F_OF_CNTR+0x1>
    24e4:	10 92 64 05 	sts	0x0564, r1	; 0x800564 <F_OF_CNTR>
    24e8:	10 92 6d 05 	sts	0x056D, r1	; 0x80056d <COMPOWER>
    24ec:	cb cf       	rjmp	.-106    	; 0x2484 <Customized_fan_run>
    24ee:	80 91 64 05 	lds	r24, 0x0564	; 0x800564 <F_OF_CNTR>
    24f2:	90 91 65 05 	lds	r25, 0x0565	; 0x800565 <F_OF_CNTR+0x1>
    24f6:	01 96       	adiw	r24, 0x01	; 1
    24f8:	90 93 65 05 	sts	0x0565, r25	; 0x800565 <F_OF_CNTR+0x1>
    24fc:	80 93 64 05 	sts	0x0564, r24	; 0x800564 <F_OF_CNTR>
    2500:	87 39       	cpi	r24, 0x97	; 151
    2502:	91 05       	cpc	r25, r1
    2504:	e0 f0       	brcs	.+56     	; 0x253e <fan_func_Robi+0x74>
    2506:	10 92 6e 05 	sts	0x056E, r1	; 0x80056e <FANMODE>
    250a:	10 92 36 05 	sts	0x0536, r1	; 0x800536 <FC>
    250e:	10 92 6f 05 	sts	0x056F, r1	; 0x80056f <ACMODE>
    2512:	10 92 25 05 	sts	0x0525, r1	; 0x800525 <FJAMCNTR+0x1>
    2516:	10 92 24 05 	sts	0x0524, r1	; 0x800524 <FJAMCNTR>
    251a:	10 92 93 05 	sts	0x0593, r1	; 0x800593 <fjamcntr1>
    251e:	10 92 92 05 	sts	0x0592, r1	; 0x800592 <fjamcntr2>
    2522:	c7 98       	cbi	0x18, 7	; 24
    2524:	75 df       	rcall	.-278    	; 0x2410 <fan_off>
    2526:	10 92 82 05 	sts	0x0582, r1	; 0x800582 <FANREST>
    252a:	10 92 3c 05 	sts	0x053C, r1	; 0x80053c <mmf>
    252e:	10 92 3d 05 	sts	0x053D, r1	; 0x80053d <ssf>
    2532:	10 92 3e 05 	sts	0x053E, r1	; 0x80053e <hhf>
    2536:	10 92 65 05 	sts	0x0565, r1	; 0x800565 <F_OF_CNTR+0x1>
    253a:	10 92 64 05 	sts	0x0564, r1	; 0x800564 <F_OF_CNTR>
    253e:	08 95       	ret

00002540 <Operation_Logic_Check_init>:
    2540:	80 91 8d 05 	lds	r24, 0x058D	; 0x80058d <TROOM>
    2544:	90 91 8e 05 	lds	r25, 0x058E	; 0x80058e <TROOM+0x1>
    2548:	20 91 1f 05 	lds	r18, 0x051F	; 0x80051f <ROOMHIGH>
    254c:	30 e0       	ldi	r19, 0x00	; 0
    254e:	28 17       	cp	r18, r24
    2550:	39 07       	cpc	r19, r25
    2552:	08 f0       	brcs	.+2      	; 0x2556 <Operation_Logic_Check_init+0x16>
    2554:	80 c0       	rjmp	.+256    	; 0x2656 <Operation_Logic_Check_init+0x116>
    2556:	20 91 8b 05 	lds	r18, 0x058B	; 0x80058b <TOUT>
    255a:	30 91 8c 05 	lds	r19, 0x058C	; 0x80058c <TOUT+0x1>
    255e:	28 17       	cp	r18, r24
    2560:	39 07       	cpc	r19, r25
    2562:	80 f5       	brcc	.+96     	; 0x25c4 <Operation_Logic_Check_init+0x84>
    2564:	40 91 31 05 	lds	r20, 0x0531	; 0x800531 <FLVD>
    2568:	41 11       	cpse	r20, r1
    256a:	2c c0       	rjmp	.+88     	; 0x25c4 <Operation_Logic_Check_init+0x84>
    256c:	81 e0       	ldi	r24, 0x01	; 1
    256e:	80 93 2f 05 	sts	0x052F, r24	; 0x80052f <ONBIT>
    2572:	10 92 80 05 	sts	0x0580, r1	; 0x800580 <ACDELAY>
    2576:	10 92 79 05 	sts	0x0579, r1	; 0x800579 <ssaa+0x1>
    257a:	10 92 78 05 	sts	0x0578, r1	; 0x800578 <ssaa>
    257e:	10 92 39 05 	sts	0x0539, r1	; 0x800539 <mma>
    2582:	10 92 3a 05 	sts	0x053A, r1	; 0x80053a <ssa>
    2586:	10 92 3b 05 	sts	0x053B, r1	; 0x80053b <hha>
    258a:	80 91 68 05 	lds	r24, 0x0568	; 0x800568 <ON_CNTR>
    258e:	90 91 69 05 	lds	r25, 0x0569	; 0x800569 <ON_CNTR+0x1>
    2592:	40 97       	sbiw	r24, 0x10	; 16
    2594:	08 f4       	brcc	.+2      	; 0x2598 <Operation_Logic_Check_init+0x58>
    2596:	5f c0       	rjmp	.+190    	; 0x2656 <Operation_Logic_Check_init+0x116>
    2598:	10 92 67 05 	sts	0x0567, r1	; 0x800567 <OF_CNTR+0x1>
    259c:	10 92 66 05 	sts	0x0566, r1	; 0x800566 <OF_CNTR>
    25a0:	10 92 2f 05 	sts	0x052F, r1	; 0x80052f <ONBIT>
    25a4:	26 df       	rcall	.-436    	; 0x23f2 <fan_on>
    25a6:	80 91 68 05 	lds	r24, 0x0568	; 0x800568 <ON_CNTR>
    25aa:	90 91 69 05 	lds	r25, 0x0569	; 0x800569 <ON_CNTR+0x1>
    25ae:	8b 3f       	cpi	r24, 0xFB	; 251
    25b0:	91 05       	cpc	r25, r1
    25b2:	08 f4       	brcc	.+2      	; 0x25b6 <Operation_Logic_Check_init+0x76>
    25b4:	50 c0       	rjmp	.+160    	; 0x2656 <Operation_Logic_Check_init+0x116>
    25b6:	8e ec       	ldi	r24, 0xCE	; 206
    25b8:	90 e0       	ldi	r25, 0x00	; 0
    25ba:	90 93 69 05 	sts	0x0569, r25	; 0x800569 <ON_CNTR+0x1>
    25be:	80 93 68 05 	sts	0x0568, r24	; 0x800568 <ON_CNTR>
    25c2:	08 95       	ret
    25c4:	82 17       	cp	r24, r18
    25c6:	93 07       	cpc	r25, r19
    25c8:	10 f5       	brcc	.+68     	; 0x260e <Operation_Logic_Check_init+0xce>
    25ca:	80 91 66 05 	lds	r24, 0x0566	; 0x800566 <OF_CNTR>
    25ce:	90 91 67 05 	lds	r25, 0x0567	; 0x800567 <OF_CNTR+0x1>
    25d2:	01 96       	adiw	r24, 0x01	; 1
    25d4:	90 93 67 05 	sts	0x0567, r25	; 0x800567 <OF_CNTR+0x1>
    25d8:	80 93 66 05 	sts	0x0566, r24	; 0x800566 <OF_CNTR>
    25dc:	10 92 2f 05 	sts	0x052F, r1	; 0x80052f <ONBIT>
    25e0:	85 31       	cpi	r24, 0x15	; 21
    25e2:	91 05       	cpc	r25, r1
    25e4:	c0 f1       	brcs	.+112    	; 0x2656 <Operation_Logic_Check_init+0x116>
    25e6:	10 92 69 05 	sts	0x0569, r1	; 0x800569 <ON_CNTR+0x1>
    25ea:	10 92 68 05 	sts	0x0568, r1	; 0x800568 <ON_CNTR>
    25ee:	10 92 6f 05 	sts	0x056F, r1	; 0x80056f <ACMODE>
    25f2:	10 92 6e 05 	sts	0x056E, r1	; 0x80056e <FANMODE>
    25f6:	10 92 36 05 	sts	0x0536, r1	; 0x800536 <FC>
    25fa:	8b 3f       	cpi	r24, 0xFB	; 251
    25fc:	91 05       	cpc	r25, r1
    25fe:	58 f1       	brcs	.+86     	; 0x2656 <Operation_Logic_Check_init+0x116>
    2600:	8e ec       	ldi	r24, 0xCE	; 206
    2602:	90 e0       	ldi	r25, 0x00	; 0
    2604:	90 93 67 05 	sts	0x0567, r25	; 0x800567 <OF_CNTR+0x1>
    2608:	80 93 66 05 	sts	0x0566, r24	; 0x800566 <OF_CNTR>
    260c:	08 95       	ret
    260e:	10 92 2f 05 	sts	0x052F, r1	; 0x80052f <ONBIT>
    2612:	10 92 80 05 	sts	0x0580, r1	; 0x800580 <ACDELAY>
    2616:	10 92 79 05 	sts	0x0579, r1	; 0x800579 <ssaa+0x1>
    261a:	10 92 78 05 	sts	0x0578, r1	; 0x800578 <ssaa>
    261e:	10 92 39 05 	sts	0x0539, r1	; 0x800539 <mma>
    2622:	10 92 3a 05 	sts	0x053A, r1	; 0x80053a <ssa>
    2626:	10 92 3b 05 	sts	0x053B, r1	; 0x80053b <hha>
    262a:	10 92 69 05 	sts	0x0569, r1	; 0x800569 <ON_CNTR+0x1>
    262e:	10 92 68 05 	sts	0x0568, r1	; 0x800568 <ON_CNTR>
    2632:	10 92 63 05 	sts	0x0563, r1	; 0x800563 <ACFAULTY+0x1>
    2636:	10 92 62 05 	sts	0x0562, r1	; 0x800562 <ACFAULTY>
    263a:	10 92 5f 05 	sts	0x055F, r1	; 0x80055f <FANFAULTY+0x1>
    263e:	10 92 5e 05 	sts	0x055E, r1	; 0x80055e <FANFAULTY>
    2642:	10 92 27 05 	sts	0x0527, r1	; 0x800527 <EXD+0x1>
    2646:	10 92 26 05 	sts	0x0526, r1	; 0x800526 <EXD>
    264a:	10 92 34 05 	sts	0x0534, r1	; 0x800534 <EXDBIT>
    264e:	10 92 6c 05 	sts	0x056C, r1	; 0x80056c <EXTR_HIGH>
    2652:	1e 98       	cbi	0x03, 6	; 3
    2654:	c5 98       	cbi	0x18, 5	; 24
    2656:	08 95       	ret

00002658 <IVS_Robi_PARAM_Auto>:
    2658:	80 91 6e 05 	lds	r24, 0x056E	; 0x80056e <FANMODE>
    265c:	81 11       	cpse	r24, r1
    265e:	06 c0       	rjmp	.+12     	; 0x266c <IVS_Robi_PARAM_Auto+0x14>
    2660:	6f df       	rcall	.-290    	; 0x2540 <Operation_Logic_Check_init>
    2662:	10 92 65 05 	sts	0x0565, r1	; 0x800565 <F_OF_CNTR+0x1>
    2666:	10 92 64 05 	sts	0x0564, r1	; 0x800564 <F_OF_CNTR>
    266a:	08 95       	ret
    266c:	81 30       	cpi	r24, 0x01	; 1
    266e:	b9 f5       	brne	.+110    	; 0x26de <IVS_Robi_PARAM_Auto+0x86>
    2670:	80 91 31 05 	lds	r24, 0x0531	; 0x800531 <FLVD>
    2674:	81 30       	cpi	r24, 0x01	; 1
    2676:	91 f4       	brne	.+36     	; 0x269c <IVS_Robi_PARAM_Auto+0x44>
    2678:	e8 de       	rcall	.-560    	; 0x244a <fan_off_all>
    267a:	10 92 6e 05 	sts	0x056E, r1	; 0x80056e <FANMODE>
    267e:	10 92 82 05 	sts	0x0582, r1	; 0x800582 <FANREST>
    2682:	10 92 36 05 	sts	0x0536, r1	; 0x800536 <FC>
    2686:	10 92 69 05 	sts	0x0569, r1	; 0x800569 <ON_CNTR+0x1>
    268a:	10 92 68 05 	sts	0x0568, r1	; 0x800568 <ON_CNTR>
    268e:	10 92 3c 05 	sts	0x053C, r1	; 0x80053c <mmf>
    2692:	10 92 3d 05 	sts	0x053D, r1	; 0x80053d <ssf>
    2696:	10 92 3e 05 	sts	0x053E, r1	; 0x80053e <hhf>
    269a:	08 95       	ret
    269c:	80 91 82 05 	lds	r24, 0x0582	; 0x800582 <FANREST>
    26a0:	81 11       	cpse	r24, r1
    26a2:	02 c0       	rjmp	.+4      	; 0x26a8 <IVS_Robi_PARAM_Auto+0x50>
    26a4:	14 de       	rcall	.-984    	; 0x22ce <check_reset_fan>
    26a6:	11 cf       	rjmp	.-478    	; 0x24ca <fan_func_Robi>
    26a8:	8b de       	rcall	.-746    	; 0x23c0 <FAN_timeover_rest>
    26aa:	89 2b       	or	r24, r25
    26ac:	c1 f0       	breq	.+48     	; 0x26de <IVS_Robi_PARAM_Auto+0x86>
    26ae:	10 92 6e 05 	sts	0x056E, r1	; 0x80056e <FANMODE>
    26b2:	10 92 82 05 	sts	0x0582, r1	; 0x800582 <FANREST>
    26b6:	10 92 36 05 	sts	0x0536, r1	; 0x800536 <FC>
    26ba:	10 92 69 05 	sts	0x0569, r1	; 0x800569 <ON_CNTR+0x1>
    26be:	10 92 68 05 	sts	0x0568, r1	; 0x800568 <ON_CNTR>
    26c2:	10 92 3c 05 	sts	0x053C, r1	; 0x80053c <mmf>
    26c6:	10 92 3d 05 	sts	0x053D, r1	; 0x80053d <ssf>
    26ca:	10 92 3e 05 	sts	0x053E, r1	; 0x80053e <hhf>
    26ce:	10 92 25 05 	sts	0x0525, r1	; 0x800525 <FJAMCNTR+0x1>
    26d2:	10 92 24 05 	sts	0x0524, r1	; 0x800524 <FJAMCNTR>
    26d6:	10 92 93 05 	sts	0x0593, r1	; 0x800593 <fjamcntr1>
    26da:	10 92 92 05 	sts	0x0592, r1	; 0x800592 <fjamcntr2>
    26de:	08 95       	ret

000026e0 <temp_show>:
    26e0:	65 e0       	ldi	r22, 0x05	; 5
    26e2:	86 e2       	ldi	r24, 0x26	; 38
    26e4:	92 e0       	ldi	r25, 0x02	; 2
    26e6:	0e 94 35 01 	call	0x26a	; 0x26a <lcdPrintData>
    26ea:	80 91 8d 05 	lds	r24, 0x058D	; 0x80058d <TROOM>
    26ee:	90 91 8e 05 	lds	r25, 0x058E	; 0x80058e <TROOM+0x1>
    26f2:	0e 94 37 02 	call	0x46e	; 0x46e <disp_int>
    26f6:	8f ed       	ldi	r24, 0xDF	; 223
    26f8:	0e 94 bd 00 	call	0x17a	; 0x17a <lcdDataWrite>
    26fc:	62 e0       	ldi	r22, 0x02	; 2
    26fe:	8c e2       	ldi	r24, 0x2C	; 44
    2700:	92 e0       	ldi	r25, 0x02	; 2
    2702:	0e 94 35 01 	call	0x26a	; 0x26a <lcdPrintData>
    2706:	66 e0       	ldi	r22, 0x06	; 6
    2708:	8f e2       	ldi	r24, 0x2F	; 47
    270a:	92 e0       	ldi	r25, 0x02	; 2
    270c:	0e 94 35 01 	call	0x26a	; 0x26a <lcdPrintData>
    2710:	80 91 8b 05 	lds	r24, 0x058B	; 0x80058b <TOUT>
    2714:	90 91 8c 05 	lds	r25, 0x058C	; 0x80058c <TOUT+0x1>
    2718:	0e 94 37 02 	call	0x46e	; 0x46e <disp_int>
    271c:	8f ed       	ldi	r24, 0xDF	; 223
    271e:	0e 94 bd 00 	call	0x17a	; 0x17a <lcdDataWrite>
    2722:	61 e0       	ldi	r22, 0x01	; 1
    2724:	86 e3       	ldi	r24, 0x36	; 54
    2726:	92 e0       	ldi	r25, 0x02	; 2
    2728:	0c 94 35 01 	jmp	0x26a	; 0x26a <lcdPrintData>

0000272c <low_line>:
    272c:	cf 92       	push	r12
    272e:	df 92       	push	r13
    2730:	ef 92       	push	r14
    2732:	ff 92       	push	r15
    2734:	cf 93       	push	r28
    2736:	df 93       	push	r29
    2738:	20 e0       	ldi	r18, 0x00	; 0
    273a:	30 e0       	ldi	r19, 0x00	; 0
    273c:	40 e2       	ldi	r20, 0x20	; 32
    273e:	51 e4       	ldi	r21, 0x41	; 65
    2740:	60 91 50 05 	lds	r22, 0x0550	; 0x800550 <BTVOLT>
    2744:	70 91 51 05 	lds	r23, 0x0551	; 0x800551 <BTVOLT+0x1>
    2748:	80 91 52 05 	lds	r24, 0x0552	; 0x800552 <BTVOLT+0x2>
    274c:	90 91 53 05 	lds	r25, 0x0553	; 0x800553 <BTVOLT+0x3>
    2750:	0e 94 95 20 	call	0x412a	; 0x412a <__mulsf3>
    2754:	0e 94 b7 1f 	call	0x3f6e	; 0x3f6e <__fixunssfsi>
    2758:	6b 01       	movw	r12, r22
    275a:	7c 01       	movw	r14, r24
    275c:	eb 01       	movw	r28, r22
    275e:	80 91 22 05 	lds	r24, 0x0522	; 0x800522 <LOWV_SET>
    2762:	90 91 23 05 	lds	r25, 0x0523	; 0x800523 <LOWV_SET+0x1>
    2766:	c8 16       	cp	r12, r24
    2768:	d9 06       	cpc	r13, r25
    276a:	10 f4       	brcc	.+4      	; 0x2770 <low_line+0x44>
    276c:	81 e0       	ldi	r24, 0x01	; 1
    276e:	0f c0       	rjmp	.+30     	; 0x278e <low_line+0x62>
    2770:	9c 01       	movw	r18, r24
    2772:	2c 5e       	subi	r18, 0xEC	; 236
    2774:	3f 4f       	sbci	r19, 0xFF	; 255
    2776:	c2 16       	cp	r12, r18
    2778:	d3 06       	cpc	r13, r19
    277a:	10 f4       	brcc	.+4      	; 0x2780 <low_line+0x54>
    277c:	82 e0       	ldi	r24, 0x02	; 2
    277e:	07 c0       	rjmp	.+14     	; 0x278e <low_line+0x62>
    2780:	88 96       	adiw	r24, 0x28	; 40
    2782:	c8 16       	cp	r12, r24
    2784:	d9 06       	cpc	r13, r25
    2786:	10 f4       	brcc	.+4      	; 0x278c <low_line+0x60>
    2788:	83 e0       	ldi	r24, 0x03	; 3
    278a:	01 c0       	rjmp	.+2      	; 0x278e <low_line+0x62>
    278c:	84 e0       	ldi	r24, 0x04	; 4
    278e:	0e 94 bd 00 	call	0x17a	; 0x17a <lcdDataWrite>
    2792:	80 91 22 05 	lds	r24, 0x0522	; 0x800522 <LOWV_SET>
    2796:	90 91 23 05 	lds	r25, 0x0523	; 0x800523 <LOWV_SET+0x1>
    279a:	c8 17       	cp	r28, r24
    279c:	d9 07       	cpc	r29, r25
    279e:	00 f5       	brcc	.+64     	; 0x27e0 <low_line+0xb4>
    27a0:	80 91 30 05 	lds	r24, 0x0530	; 0x800530 <blink_FLV>
    27a4:	8f 5f       	subi	r24, 0xFF	; 255
    27a6:	86 30       	cpi	r24, 0x06	; 6
    27a8:	18 f4       	brcc	.+6      	; 0x27b0 <low_line+0x84>
    27aa:	80 93 30 05 	sts	0x0530, r24	; 0x800530 <blink_FLV>
    27ae:	02 c0       	rjmp	.+4      	; 0x27b4 <low_line+0x88>
    27b0:	10 92 30 05 	sts	0x0530, r1	; 0x800530 <blink_FLV>
    27b4:	80 91 30 05 	lds	r24, 0x0530	; 0x800530 <blink_FLV>
    27b8:	83 30       	cpi	r24, 0x03	; 3
    27ba:	30 f4       	brcc	.+12     	; 0x27c8 <low_line+0x9c>
    27bc:	64 e0       	ldi	r22, 0x04	; 4
    27be:	88 e9       	ldi	r24, 0x98	; 152
    27c0:	93 e0       	ldi	r25, 0x03	; 3
    27c2:	0e 94 35 01 	call	0x26a	; 0x26a <lcdPrintData>
    27c6:	03 c0       	rjmp	.+6      	; 0x27ce <low_line+0xa2>
    27c8:	c6 01       	movw	r24, r12
    27ca:	0e 94 54 02 	call	0x4a8	; 0x4a8 <disp_float2>
    27ce:	66 e0       	ldi	r22, 0x06	; 6
    27d0:	88 e3       	ldi	r24, 0x38	; 56
    27d2:	92 e0       	ldi	r25, 0x02	; 2
    27d4:	0e 94 35 01 	call	0x26a	; 0x26a <lcdPrintData>
    27d8:	6b e0       	ldi	r22, 0x0B	; 11
    27da:	8f e3       	ldi	r24, 0x3F	; 63
    27dc:	92 e0       	ldi	r25, 0x02	; 2
    27de:	35 c0       	rjmp	.+106    	; 0x284a <low_line+0x11e>
    27e0:	c6 01       	movw	r24, r12
    27e2:	0e 94 54 02 	call	0x4a8	; 0x4a8 <disp_float2>
    27e6:	66 e0       	ldi	r22, 0x06	; 6
    27e8:	88 e3       	ldi	r24, 0x38	; 56
    27ea:	92 e0       	ldi	r25, 0x02	; 2
    27ec:	0e 94 35 01 	call	0x26a	; 0x26a <lcdPrintData>
    27f0:	80 91 95 05 	lds	r24, 0x0595	; 0x800595 <RPMWORKS>
    27f4:	90 91 96 05 	lds	r25, 0x0596	; 0x800596 <RPMWORKS+0x1>
    27f8:	01 97       	sbiw	r24, 0x01	; 1
    27fa:	21 f5       	brne	.+72     	; 0x2844 <low_line+0x118>
    27fc:	65 e0       	ldi	r22, 0x05	; 5
    27fe:	8b e4       	ldi	r24, 0x4B	; 75
    2800:	92 e0       	ldi	r25, 0x02	; 2
    2802:	0e 94 35 01 	call	0x26a	; 0x26a <lcdPrintData>
    2806:	80 91 5c 05 	lds	r24, 0x055C	; 0x80055c <RPM>
    280a:	90 91 5d 05 	lds	r25, 0x055D	; 0x80055d <RPM+0x1>
    280e:	85 36       	cpi	r24, 0x65	; 101
    2810:	91 05       	cpc	r25, r1
    2812:	38 f0       	brcs	.+14     	; 0x2822 <low_line+0xf6>
    2814:	89 3e       	cpi	r24, 0xE9	; 233
    2816:	93 40       	sbci	r25, 0x03	; 3
    2818:	48 f4       	brcc	.+18     	; 0x282c <low_line+0x100>
    281a:	61 e0       	ldi	r22, 0x01	; 1
    281c:	86 e5       	ldi	r24, 0x56	; 86
    281e:	91 e0       	ldi	r25, 0x01	; 1
    2820:	03 c0       	rjmp	.+6      	; 0x2828 <low_line+0xfc>
    2822:	62 e0       	ldi	r22, 0x02	; 2
    2824:	85 e5       	ldi	r24, 0x55	; 85
    2826:	91 e0       	ldi	r25, 0x01	; 1
    2828:	0e 94 35 01 	call	0x26a	; 0x26a <lcdPrintData>
    282c:	80 91 5c 05 	lds	r24, 0x055C	; 0x80055c <RPM>
    2830:	90 91 5d 05 	lds	r25, 0x055D	; 0x80055d <RPM+0x1>
    2834:	df 91       	pop	r29
    2836:	cf 91       	pop	r28
    2838:	ff 90       	pop	r15
    283a:	ef 90       	pop	r14
    283c:	df 90       	pop	r13
    283e:	cf 90       	pop	r12
    2840:	0c 94 37 02 	jmp	0x46e	; 0x46e <disp_int>
    2844:	69 e0       	ldi	r22, 0x09	; 9
    2846:	83 e9       	ldi	r24, 0x93	; 147
    2848:	93 e0       	ldi	r25, 0x03	; 3
    284a:	df 91       	pop	r29
    284c:	cf 91       	pop	r28
    284e:	ff 90       	pop	r15
    2850:	ef 90       	pop	r14
    2852:	df 90       	pop	r13
    2854:	cf 90       	pop	r12
    2856:	0c 94 35 01 	jmp	0x26a	; 0x26a <lcdPrintData>

0000285a <display_Main_auto>:
    285a:	80 e8       	ldi	r24, 0x80	; 128
    285c:	0e 94 9e 00 	call	0x13c	; 0x13c <lcdControlWrite>
    2860:	64 e1       	ldi	r22, 0x14	; 20
    2862:	81 e1       	ldi	r24, 0x11	; 17
    2864:	92 e0       	ldi	r25, 0x02	; 2
    2866:	0e 94 35 01 	call	0x26a	; 0x26a <lcdPrintData>
    286a:	80 ec       	ldi	r24, 0xC0	; 192
    286c:	0e 94 9e 00 	call	0x13c	; 0x13c <lcdControlWrite>
    2870:	37 df       	rcall	.-402    	; 0x26e0 <temp_show>
    2872:	84 e9       	ldi	r24, 0x94	; 148
    2874:	0e 94 9e 00 	call	0x13c	; 0x13c <lcdControlWrite>
    2878:	65 e0       	ldi	r22, 0x05	; 5
    287a:	81 e5       	ldi	r24, 0x51	; 81
    287c:	92 e0       	ldi	r25, 0x02	; 2
    287e:	0e 94 35 01 	call	0x26a	; 0x26a <lcdPrintData>
    2882:	80 91 5e 05 	lds	r24, 0x055E	; 0x80055e <FANFAULTY>
    2886:	90 91 5f 05 	lds	r25, 0x055F	; 0x80055f <FANFAULTY+0x1>
    288a:	89 2b       	or	r24, r25
    288c:	09 f5       	brne	.+66     	; 0x28d0 <display_Main_auto+0x76>
    288e:	80 91 6e 05 	lds	r24, 0x056E	; 0x80056e <FANMODE>
    2892:	81 11       	cpse	r24, r1
    2894:	10 c0       	rjmp	.+32     	; 0x28b6 <display_Main_auto+0x5c>
    2896:	80 91 2f 05 	lds	r24, 0x052F	; 0x80052f <ONBIT>
    289a:	81 30       	cpi	r24, 0x01	; 1
    289c:	41 f4       	brne	.+16     	; 0x28ae <display_Main_auto+0x54>
    289e:	67 e0       	ldi	r22, 0x07	; 7
    28a0:	87 e5       	ldi	r24, 0x57	; 87
    28a2:	92 e0       	ldi	r25, 0x02	; 2
    28a4:	1c c0       	rjmp	.+56     	; 0x28de <display_Main_auto+0x84>
    28a6:	80 91 6e 05 	lds	r24, 0x056E	; 0x80056e <FANMODE>
    28aa:	81 11       	cpse	r24, r1
    28ac:	04 c0       	rjmp	.+8      	; 0x28b6 <display_Main_auto+0x5c>
    28ae:	67 e0       	ldi	r22, 0x07	; 7
    28b0:	8f e5       	ldi	r24, 0x5F	; 95
    28b2:	92 e0       	ldi	r25, 0x02	; 2
    28b4:	14 c0       	rjmp	.+40     	; 0x28de <display_Main_auto+0x84>
    28b6:	81 30       	cpi	r24, 0x01	; 1
    28b8:	a1 f4       	brne	.+40     	; 0x28e2 <display_Main_auto+0x88>
    28ba:	80 91 82 05 	lds	r24, 0x0582	; 0x800582 <FANREST>
    28be:	67 e0       	ldi	r22, 0x07	; 7
    28c0:	81 30       	cpi	r24, 0x01	; 1
    28c2:	19 f4       	brne	.+6      	; 0x28ca <display_Main_auto+0x70>
    28c4:	87 e6       	ldi	r24, 0x67	; 103
    28c6:	92 e0       	ldi	r25, 0x02	; 2
    28c8:	0a c0       	rjmp	.+20     	; 0x28de <display_Main_auto+0x84>
    28ca:	8f e6       	ldi	r24, 0x6F	; 111
    28cc:	92 e0       	ldi	r25, 0x02	; 2
    28ce:	07 c0       	rjmp	.+14     	; 0x28de <display_Main_auto+0x84>
    28d0:	80 91 33 05 	lds	r24, 0x0533	; 0x800533 <blink_FF>
    28d4:	83 30       	cpi	r24, 0x03	; 3
    28d6:	38 f7       	brcc	.-50     	; 0x28a6 <display_Main_auto+0x4c>
    28d8:	67 e0       	ldi	r22, 0x07	; 7
    28da:	87 e7       	ldi	r24, 0x77	; 119
    28dc:	92 e0       	ldi	r25, 0x02	; 2
    28de:	0e 94 35 01 	call	0x26a	; 0x26a <lcdPrintData>
    28e2:	80 91 2f 05 	lds	r24, 0x052F	; 0x80052f <ONBIT>
    28e6:	81 11       	cpse	r24, r1
    28e8:	02 c0       	rjmp	.+4      	; 0x28ee <display_Main_auto+0x94>
    28ea:	59 d9       	rcall	.-3406   	; 0x1b9e <disp_time_fan>
    28ec:	0b c0       	rjmp	.+22     	; 0x2904 <display_Main_auto+0xaa>
    28ee:	80 91 68 05 	lds	r24, 0x0568	; 0x800568 <ON_CNTR>
    28f2:	90 91 69 05 	lds	r25, 0x0569	; 0x800569 <ON_CNTR+0x1>
    28f6:	0e 94 37 02 	call	0x46e	; 0x46e <disp_int>
    28fa:	66 e0       	ldi	r22, 0x06	; 6
    28fc:	8f e7       	ldi	r24, 0x7F	; 127
    28fe:	92 e0       	ldi	r25, 0x02	; 2
    2900:	0e 94 35 01 	call	0x26a	; 0x26a <lcdPrintData>
    2904:	84 ed       	ldi	r24, 0xD4	; 212
    2906:	0e 94 9e 00 	call	0x13c	; 0x13c <lcdControlWrite>
    290a:	10 cf       	rjmp	.-480    	; 0x272c <low_line>

0000290c <take_all_input>:
    290c:	a8 95       	wdr
    290e:	9f e0       	ldi	r25, 0x0F	; 15
    2910:	88 e1       	ldi	r24, 0x18	; 24
    2912:	0f b6       	in	r0, 0x3f	; 63
    2914:	f8 94       	cli
    2916:	a8 95       	wdr
    2918:	81 bd       	out	0x21, r24	; 33
    291a:	0f be       	out	0x3f, r0	; 63
    291c:	91 bd       	out	0x21, r25	; 33
    291e:	36 9a       	sbi	0x06, 6	; 6
    2920:	8f ed       	ldi	r24, 0xDF	; 223
    2922:	9e e2       	ldi	r25, 0x2E	; 46
    2924:	01 97       	sbiw	r24, 0x01	; 1
    2926:	f1 f7       	brne	.-4      	; 0x2924 <take_all_input+0x18>
    2928:	00 c0       	rjmp	.+0      	; 0x292a <take_all_input+0x1e>
    292a:	00 00       	nop
    292c:	0e 94 9c 01 	call	0x338	; 0x338 <start_convar>
    2930:	36 9a       	sbi	0x06, 6	; 6
    2932:	36 9a       	sbi	0x06, 6	; 6
    2934:	8f ed       	ldi	r24, 0xDF	; 223
    2936:	9e e2       	ldi	r25, 0x2E	; 46
    2938:	01 97       	sbiw	r24, 0x01	; 1
    293a:	f1 f7       	brne	.-4      	; 0x2938 <take_all_input+0x2c>
    293c:	00 c0       	rjmp	.+0      	; 0x293e <take_all_input+0x32>
    293e:	00 00       	nop
    2940:	0e 94 00 02 	call	0x400	; 0x400 <start_convar2>
    2944:	0e 94 7a 03 	call	0x6f4	; 0x6f4 <DS18X20_start_meas>
    2948:	8f e9       	ldi	r24, 0x9F	; 159
    294a:	9f e0       	ldi	r25, 0x0F	; 15
    294c:	01 97       	sbiw	r24, 0x01	; 1
    294e:	f1 f7       	brne	.-4      	; 0x294c <take_all_input+0x40>
    2950:	00 c0       	rjmp	.+0      	; 0x2952 <take_all_input+0x46>
    2952:	00 00       	nop
    2954:	0e 94 84 03 	call	0x708	; 0x708 <DS18X20_read_meas_single>
    2958:	0e 94 b5 04 	call	0x96a	; 0x96a <DS18X20_start_meas2>
    295c:	8f e9       	ldi	r24, 0x9F	; 159
    295e:	9f e0       	ldi	r25, 0x0F	; 15
    2960:	01 97       	sbiw	r24, 0x01	; 1
    2962:	f1 f7       	brne	.-4      	; 0x2960 <take_all_input+0x54>
    2964:	00 c0       	rjmp	.+0      	; 0x2966 <take_all_input+0x5a>
    2966:	00 00       	nop
    2968:	0c 94 bf 04 	jmp	0x97e	; 0x97e <DS18X20_read_meas_single2>

0000296c <low_voltage_check>:
    296c:	cf 92       	push	r12
    296e:	df 92       	push	r13
    2970:	ef 92       	push	r14
    2972:	ff 92       	push	r15
    2974:	20 e0       	ldi	r18, 0x00	; 0
    2976:	30 e0       	ldi	r19, 0x00	; 0
    2978:	40 e2       	ldi	r20, 0x20	; 32
    297a:	51 e4       	ldi	r21, 0x41	; 65
    297c:	60 91 50 05 	lds	r22, 0x0550	; 0x800550 <BTVOLT>
    2980:	70 91 51 05 	lds	r23, 0x0551	; 0x800551 <BTVOLT+0x1>
    2984:	80 91 52 05 	lds	r24, 0x0552	; 0x800552 <BTVOLT+0x2>
    2988:	90 91 53 05 	lds	r25, 0x0553	; 0x800553 <BTVOLT+0x3>
    298c:	0e 94 95 20 	call	0x412a	; 0x412a <__mulsf3>
    2990:	6b 01       	movw	r12, r22
    2992:	7c 01       	movw	r14, r24
    2994:	60 91 22 05 	lds	r22, 0x0522	; 0x800522 <LOWV_SET>
    2998:	70 91 23 05 	lds	r23, 0x0523	; 0x800523 <LOWV_SET+0x1>
    299c:	80 e0       	ldi	r24, 0x00	; 0
    299e:	90 e0       	ldi	r25, 0x00	; 0
    29a0:	0e 94 e3 1f 	call	0x3fc6	; 0x3fc6 <__floatunsisf>
    29a4:	9b 01       	movw	r18, r22
    29a6:	ac 01       	movw	r20, r24
    29a8:	c7 01       	movw	r24, r14
    29aa:	b6 01       	movw	r22, r12
    29ac:	0e 94 46 1f 	call	0x3e8c	; 0x3e8c <__cmpsf2>
    29b0:	87 ff       	sbrs	r24, 7
    29b2:	1f c0       	rjmp	.+62     	; 0x29f2 <low_voltage_check+0x86>
    29b4:	80 91 32 05 	lds	r24, 0x0532	; 0x800532 <lvcntr1>
    29b8:	8f 5f       	subi	r24, 0xFF	; 255
    29ba:	85 36       	cpi	r24, 0x65	; 101
    29bc:	18 f4       	brcc	.+6      	; 0x29c4 <low_voltage_check+0x58>
    29be:	80 93 32 05 	sts	0x0532, r24	; 0x800532 <lvcntr1>
    29c2:	39 c0       	rjmp	.+114    	; 0x2a36 <low_voltage_check+0xca>
    29c4:	89 e6       	ldi	r24, 0x69	; 105
    29c6:	80 93 32 05 	sts	0x0532, r24	; 0x800532 <lvcntr1>
    29ca:	81 e0       	ldi	r24, 0x01	; 1
    29cc:	80 93 31 05 	sts	0x0531, r24	; 0x800531 <FLVD>
    29d0:	10 92 38 05 	sts	0x0538, r1	; 0x800538 <lvcntr2+0x1>
    29d4:	10 92 37 05 	sts	0x0537, r1	; 0x800537 <lvcntr2>
    29d8:	80 91 9b 05 	lds	r24, 0x059B	; 0x80059b <BUZZER2>
    29dc:	90 91 9c 05 	lds	r25, 0x059C	; 0x80059c <BUZZER2+0x1>
    29e0:	89 2b       	or	r24, r25
    29e2:	49 f5       	brne	.+82     	; 0x2a36 <low_voltage_check+0xca>
    29e4:	81 e0       	ldi	r24, 0x01	; 1
    29e6:	90 e0       	ldi	r25, 0x00	; 0
    29e8:	90 93 9c 05 	sts	0x059C, r25	; 0x80059c <BUZZER2+0x1>
    29ec:	80 93 9b 05 	sts	0x059B, r24	; 0x80059b <BUZZER2>
    29f0:	22 c0       	rjmp	.+68     	; 0x2a36 <low_voltage_check+0xca>
    29f2:	80 91 37 05 	lds	r24, 0x0537	; 0x800537 <lvcntr2>
    29f6:	90 91 38 05 	lds	r25, 0x0538	; 0x800538 <lvcntr2+0x1>
    29fa:	01 96       	adiw	r24, 0x01	; 1
    29fc:	85 38       	cpi	r24, 0x85	; 133
    29fe:	23 e0       	ldi	r18, 0x03	; 3
    2a00:	92 07       	cpc	r25, r18
    2a02:	28 f4       	brcc	.+10     	; 0x2a0e <low_voltage_check+0xa2>
    2a04:	90 93 38 05 	sts	0x0538, r25	; 0x800538 <lvcntr2+0x1>
    2a08:	80 93 37 05 	sts	0x0537, r24	; 0x800537 <lvcntr2>
    2a0c:	14 c0       	rjmp	.+40     	; 0x2a36 <low_voltage_check+0xca>
    2a0e:	89 e8       	ldi	r24, 0x89	; 137
    2a10:	93 e0       	ldi	r25, 0x03	; 3
    2a12:	90 93 38 05 	sts	0x0538, r25	; 0x800538 <lvcntr2+0x1>
    2a16:	80 93 37 05 	sts	0x0537, r24	; 0x800537 <lvcntr2>
    2a1a:	10 92 31 05 	sts	0x0531, r1	; 0x800531 <FLVD>
    2a1e:	10 92 32 05 	sts	0x0532, r1	; 0x800532 <lvcntr1>
    2a22:	80 91 9b 05 	lds	r24, 0x059B	; 0x80059b <BUZZER2>
    2a26:	90 91 9c 05 	lds	r25, 0x059C	; 0x80059c <BUZZER2+0x1>
    2a2a:	01 97       	sbiw	r24, 0x01	; 1
    2a2c:	21 f4       	brne	.+8      	; 0x2a36 <low_voltage_check+0xca>
    2a2e:	10 92 9c 05 	sts	0x059C, r1	; 0x80059c <BUZZER2+0x1>
    2a32:	10 92 9b 05 	sts	0x059B, r1	; 0x80059b <BUZZER2>
    2a36:	ff 90       	pop	r15
    2a38:	ef 90       	pop	r14
    2a3a:	df 90       	pop	r13
    2a3c:	cf 90       	pop	r12
    2a3e:	08 95       	ret

00002a40 <increment_MainItem>:
    2a40:	cf 93       	push	r28
    2a42:	df 93       	push	r29
    2a44:	90 91 88 05 	lds	r25, 0x0588	; 0x800588 <level>
    2a48:	91 11       	cpse	r25, r1
    2a4a:	73 c0       	rjmp	.+230    	; 0x2b32 <increment_MainItem+0xf2>
    2a4c:	80 91 8a 05 	lds	r24, 0x058A	; 0x80058a <SFTM_ITM>
    2a50:	8f 5f       	subi	r24, 0xFF	; 255
    2a52:	8e 30       	cpi	r24, 0x0E	; 14
    2a54:	08 f0       	brcs	.+2      	; 0x2a58 <increment_MainItem+0x18>
    2a56:	81 e0       	ldi	r24, 0x01	; 1
    2a58:	80 93 8a 05 	sts	0x058A, r24	; 0x80058a <SFTM_ITM>
    2a5c:	80 91 8a 05 	lds	r24, 0x058A	; 0x80058a <SFTM_ITM>
    2a60:	8a 30       	cpi	r24, 0x0A	; 10
    2a62:	69 f4       	brne	.+26     	; 0x2a7e <increment_MainItem+0x3e>
    2a64:	0e 94 50 07 	call	0xea0	; 0xea0 <DATE_TIME_Conversion>
    2a68:	80 91 0d 05 	lds	r24, 0x050D	; 0x80050d <HOURin>
    2a6c:	80 93 86 05 	sts	0x0586, r24	; 0x800586 <VALUE2>
    2a70:	80 91 0e 05 	lds	r24, 0x050E	; 0x80050e <MINin>
    2a74:	80 93 84 05 	sts	0x0584, r24	; 0x800584 <VALUE3>
    2a78:	80 91 0f 05 	lds	r24, 0x050F	; 0x80050f <SECin>
    2a7c:	0e c0       	rjmp	.+28     	; 0x2a9a <increment_MainItem+0x5a>
    2a7e:	8b 30       	cpi	r24, 0x0B	; 11
    2a80:	79 f4       	brne	.+30     	; 0x2aa0 <increment_MainItem+0x60>
    2a82:	0e 94 50 07 	call	0xea0	; 0xea0 <DATE_TIME_Conversion>
    2a86:	80 91 0b 05 	lds	r24, 0x050B	; 0x80050b <DATEin>
    2a8a:	80 93 86 05 	sts	0x0586, r24	; 0x800586 <VALUE2>
    2a8e:	80 91 0c 05 	lds	r24, 0x050C	; 0x80050c <MONTHin>
    2a92:	80 93 84 05 	sts	0x0584, r24	; 0x800584 <VALUE3>
    2a96:	80 91 0a 05 	lds	r24, 0x050A	; 0x80050a <YEARin>
    2a9a:	80 93 83 05 	sts	0x0583, r24	; 0x800583 <VALUE4>
    2a9e:	61 c0       	rjmp	.+194    	; 0x2b62 <increment_MainItem+0x122>
    2aa0:	31 e0       	ldi	r19, 0x01	; 1
    2aa2:	24 ef       	ldi	r18, 0xF4	; 244
    2aa4:	28 0f       	add	r18, r24
    2aa6:	22 30       	cpi	r18, 0x02	; 2
    2aa8:	08 f0       	brcs	.+2      	; 0x2aac <increment_MainItem+0x6c>
    2aaa:	30 e0       	ldi	r19, 0x00	; 0
    2aac:	91 e0       	ldi	r25, 0x01	; 1
    2aae:	2a ef       	ldi	r18, 0xFA	; 250
    2ab0:	28 0f       	add	r18, r24
    2ab2:	23 30       	cpi	r18, 0x03	; 3
    2ab4:	08 f0       	brcs	.+2      	; 0x2ab8 <increment_MainItem+0x78>
    2ab6:	90 e0       	ldi	r25, 0x00	; 0
    2ab8:	93 2b       	or	r25, r19
    2aba:	c8 2f       	mov	r28, r24
    2abc:	d0 e0       	ldi	r29, 0x00	; 0
    2abe:	11 f4       	brne	.+4      	; 0x2ac4 <increment_MainItem+0x84>
    2ac0:	84 30       	cpi	r24, 0x04	; 4
    2ac2:	f0 f4       	brcc	.+60     	; 0x2b00 <increment_MainItem+0xc0>
    2ac4:	87 30       	cpi	r24, 0x07	; 7
    2ac6:	19 f4       	brne	.+6      	; 0x2ace <increment_MainItem+0x8e>
    2ac8:	8c e2       	ldi	r24, 0x2C	; 44
    2aca:	91 e0       	ldi	r25, 0x01	; 1
    2acc:	04 c0       	rjmp	.+8      	; 0x2ad6 <increment_MainItem+0x96>
    2ace:	8d 30       	cpi	r24, 0x0D	; 13
    2ad0:	41 f4       	brne	.+16     	; 0x2ae2 <increment_MainItem+0xa2>
    2ad2:	8c ed       	ldi	r24, 0xDC	; 220
    2ad4:	90 e0       	ldi	r25, 0x00	; 0
    2ad6:	0e 94 63 21 	call	0x42c6	; 0x42c6 <eeprom_read_word>
    2ada:	90 93 61 05 	sts	0x0561, r25	; 0x800561 <VALUE5+0x1>
    2ade:	80 93 60 05 	sts	0x0560, r24	; 0x800560 <VALUE5>
    2ae2:	21 97       	sbiw	r28, 0x01	; 1
    2ae4:	ce 01       	movw	r24, r28
    2ae6:	88 0f       	add	r24, r24
    2ae8:	99 1f       	adc	r25, r25
    2aea:	c8 0f       	add	r28, r24
    2aec:	d9 1f       	adc	r29, r25
    2aee:	ce 5d       	subi	r28, 0xDE	; 222
    2af0:	d9 4f       	sbci	r29, 0xF9	; 249
    2af2:	88 81       	ld	r24, Y
    2af4:	90 e0       	ldi	r25, 0x00	; 0
    2af6:	0e 94 5b 21 	call	0x42b6	; 0x42b6 <eeprom_read_byte>
    2afa:	80 93 86 05 	sts	0x0586, r24	; 0x800586 <VALUE2>
    2afe:	31 c0       	rjmp	.+98     	; 0x2b62 <increment_MainItem+0x122>
    2b00:	21 97       	sbiw	r28, 0x01	; 1
    2b02:	ce 01       	movw	r24, r28
    2b04:	88 0f       	add	r24, r24
    2b06:	99 1f       	adc	r25, r25
    2b08:	c8 0f       	add	r28, r24
    2b0a:	d9 1f       	adc	r29, r25
    2b0c:	ce 5d       	subi	r28, 0xDE	; 222
    2b0e:	d9 4f       	sbci	r29, 0xF9	; 249
    2b10:	88 81       	ld	r24, Y
    2b12:	90 e0       	ldi	r25, 0x00	; 0
    2b14:	0e 94 5b 21 	call	0x42b6	; 0x42b6 <eeprom_read_byte>
    2b18:	80 93 86 05 	sts	0x0586, r24	; 0x800586 <VALUE2>
    2b1c:	89 81       	ldd	r24, Y+1	; 0x01
    2b1e:	90 e0       	ldi	r25, 0x00	; 0
    2b20:	0e 94 5b 21 	call	0x42b6	; 0x42b6 <eeprom_read_byte>
    2b24:	80 93 84 05 	sts	0x0584, r24	; 0x800584 <VALUE3>
    2b28:	8a 81       	ldd	r24, Y+2	; 0x02
    2b2a:	90 e0       	ldi	r25, 0x00	; 0
    2b2c:	0e 94 5b 21 	call	0x42b6	; 0x42b6 <eeprom_read_byte>
    2b30:	b4 cf       	rjmp	.-152    	; 0x2a9a <increment_MainItem+0x5a>
    2b32:	91 30       	cpi	r25, 0x01	; 1
    2b34:	b1 f4       	brne	.+44     	; 0x2b62 <increment_MainItem+0x122>
    2b36:	80 91 86 05 	lds	r24, 0x0586	; 0x800586 <VALUE2>
    2b3a:	8f 5f       	subi	r24, 0xFF	; 255
    2b3c:	80 93 86 05 	sts	0x0586, r24	; 0x800586 <VALUE2>
    2b40:	20 91 8a 05 	lds	r18, 0x058A	; 0x80058a <SFTM_ITM>
    2b44:	2c 30       	cpi	r18, 0x0C	; 12
    2b46:	21 f4       	brne	.+8      	; 0x2b50 <increment_MainItem+0x110>
    2b48:	83 30       	cpi	r24, 0x03	; 3
    2b4a:	10 f0       	brcs	.+4      	; 0x2b50 <increment_MainItem+0x110>
    2b4c:	90 93 86 05 	sts	0x0586, r25	; 0x800586 <VALUE2>
    2b50:	80 91 60 05 	lds	r24, 0x0560	; 0x800560 <VALUE5>
    2b54:	90 91 61 05 	lds	r25, 0x0561	; 0x800561 <VALUE5+0x1>
    2b58:	01 96       	adiw	r24, 0x01	; 1
    2b5a:	90 93 61 05 	sts	0x0561, r25	; 0x800561 <VALUE5+0x1>
    2b5e:	80 93 60 05 	sts	0x0560, r24	; 0x800560 <VALUE5>
    2b62:	df 91       	pop	r29
    2b64:	cf 91       	pop	r28
    2b66:	08 95       	ret

00002b68 <decrement_MainItem>:
    2b68:	cf 93       	push	r28
    2b6a:	df 93       	push	r29
    2b6c:	90 91 88 05 	lds	r25, 0x0588	; 0x800588 <level>
    2b70:	91 11       	cpse	r25, r1
    2b72:	72 c0       	rjmp	.+228    	; 0x2c58 <decrement_MainItem+0xf0>
    2b74:	80 91 8a 05 	lds	r24, 0x058A	; 0x80058a <SFTM_ITM>
    2b78:	81 50       	subi	r24, 0x01	; 1
    2b7a:	09 f4       	brne	.+2      	; 0x2b7e <decrement_MainItem+0x16>
    2b7c:	8d e0       	ldi	r24, 0x0D	; 13
    2b7e:	80 93 8a 05 	sts	0x058A, r24	; 0x80058a <SFTM_ITM>
    2b82:	80 91 8a 05 	lds	r24, 0x058A	; 0x80058a <SFTM_ITM>
    2b86:	8a 30       	cpi	r24, 0x0A	; 10
    2b88:	69 f4       	brne	.+26     	; 0x2ba4 <decrement_MainItem+0x3c>
    2b8a:	0e 94 50 07 	call	0xea0	; 0xea0 <DATE_TIME_Conversion>
    2b8e:	80 91 0d 05 	lds	r24, 0x050D	; 0x80050d <HOURin>
    2b92:	80 93 86 05 	sts	0x0586, r24	; 0x800586 <VALUE2>
    2b96:	80 91 0e 05 	lds	r24, 0x050E	; 0x80050e <MINin>
    2b9a:	80 93 84 05 	sts	0x0584, r24	; 0x800584 <VALUE3>
    2b9e:	80 91 0f 05 	lds	r24, 0x050F	; 0x80050f <SECin>
    2ba2:	0e c0       	rjmp	.+28     	; 0x2bc0 <decrement_MainItem+0x58>
    2ba4:	8b 30       	cpi	r24, 0x0B	; 11
    2ba6:	79 f4       	brne	.+30     	; 0x2bc6 <decrement_MainItem+0x5e>
    2ba8:	0e 94 50 07 	call	0xea0	; 0xea0 <DATE_TIME_Conversion>
    2bac:	80 91 0b 05 	lds	r24, 0x050B	; 0x80050b <DATEin>
    2bb0:	80 93 86 05 	sts	0x0586, r24	; 0x800586 <VALUE2>
    2bb4:	80 91 0c 05 	lds	r24, 0x050C	; 0x80050c <MONTHin>
    2bb8:	80 93 84 05 	sts	0x0584, r24	; 0x800584 <VALUE3>
    2bbc:	80 91 0a 05 	lds	r24, 0x050A	; 0x80050a <YEARin>
    2bc0:	80 93 83 05 	sts	0x0583, r24	; 0x800583 <VALUE4>
    2bc4:	65 c0       	rjmp	.+202    	; 0x2c90 <decrement_MainItem+0x128>
    2bc6:	31 e0       	ldi	r19, 0x01	; 1
    2bc8:	2a ef       	ldi	r18, 0xFA	; 250
    2bca:	28 0f       	add	r18, r24
    2bcc:	23 30       	cpi	r18, 0x03	; 3
    2bce:	08 f0       	brcs	.+2      	; 0x2bd2 <decrement_MainItem+0x6a>
    2bd0:	30 e0       	ldi	r19, 0x00	; 0
    2bd2:	91 e0       	ldi	r25, 0x01	; 1
    2bd4:	24 ef       	ldi	r18, 0xF4	; 244
    2bd6:	28 0f       	add	r18, r24
    2bd8:	22 30       	cpi	r18, 0x02	; 2
    2bda:	08 f0       	brcs	.+2      	; 0x2bde <decrement_MainItem+0x76>
    2bdc:	90 e0       	ldi	r25, 0x00	; 0
    2bde:	93 2b       	or	r25, r19
    2be0:	c8 2f       	mov	r28, r24
    2be2:	d0 e0       	ldi	r29, 0x00	; 0
    2be4:	11 f4       	brne	.+4      	; 0x2bea <decrement_MainItem+0x82>
    2be6:	84 30       	cpi	r24, 0x04	; 4
    2be8:	f0 f4       	brcc	.+60     	; 0x2c26 <decrement_MainItem+0xbe>
    2bea:	87 30       	cpi	r24, 0x07	; 7
    2bec:	19 f4       	brne	.+6      	; 0x2bf4 <decrement_MainItem+0x8c>
    2bee:	8c e2       	ldi	r24, 0x2C	; 44
    2bf0:	91 e0       	ldi	r25, 0x01	; 1
    2bf2:	04 c0       	rjmp	.+8      	; 0x2bfc <decrement_MainItem+0x94>
    2bf4:	8d 30       	cpi	r24, 0x0D	; 13
    2bf6:	41 f4       	brne	.+16     	; 0x2c08 <decrement_MainItem+0xa0>
    2bf8:	8c ed       	ldi	r24, 0xDC	; 220
    2bfa:	90 e0       	ldi	r25, 0x00	; 0
    2bfc:	0e 94 63 21 	call	0x42c6	; 0x42c6 <eeprom_read_word>
    2c00:	90 93 61 05 	sts	0x0561, r25	; 0x800561 <VALUE5+0x1>
    2c04:	80 93 60 05 	sts	0x0560, r24	; 0x800560 <VALUE5>
    2c08:	21 97       	sbiw	r28, 0x01	; 1
    2c0a:	ce 01       	movw	r24, r28
    2c0c:	88 0f       	add	r24, r24
    2c0e:	99 1f       	adc	r25, r25
    2c10:	c8 0f       	add	r28, r24
    2c12:	d9 1f       	adc	r29, r25
    2c14:	ce 5d       	subi	r28, 0xDE	; 222
    2c16:	d9 4f       	sbci	r29, 0xF9	; 249
    2c18:	88 81       	ld	r24, Y
    2c1a:	90 e0       	ldi	r25, 0x00	; 0
    2c1c:	0e 94 5b 21 	call	0x42b6	; 0x42b6 <eeprom_read_byte>
    2c20:	80 93 86 05 	sts	0x0586, r24	; 0x800586 <VALUE2>
    2c24:	35 c0       	rjmp	.+106    	; 0x2c90 <decrement_MainItem+0x128>
    2c26:	21 97       	sbiw	r28, 0x01	; 1
    2c28:	ce 01       	movw	r24, r28
    2c2a:	88 0f       	add	r24, r24
    2c2c:	99 1f       	adc	r25, r25
    2c2e:	c8 0f       	add	r28, r24
    2c30:	d9 1f       	adc	r29, r25
    2c32:	ce 5d       	subi	r28, 0xDE	; 222
    2c34:	d9 4f       	sbci	r29, 0xF9	; 249
    2c36:	88 81       	ld	r24, Y
    2c38:	90 e0       	ldi	r25, 0x00	; 0
    2c3a:	0e 94 5b 21 	call	0x42b6	; 0x42b6 <eeprom_read_byte>
    2c3e:	80 93 86 05 	sts	0x0586, r24	; 0x800586 <VALUE2>
    2c42:	89 81       	ldd	r24, Y+1	; 0x01
    2c44:	90 e0       	ldi	r25, 0x00	; 0
    2c46:	0e 94 5b 21 	call	0x42b6	; 0x42b6 <eeprom_read_byte>
    2c4a:	80 93 84 05 	sts	0x0584, r24	; 0x800584 <VALUE3>
    2c4e:	8a 81       	ldd	r24, Y+2	; 0x02
    2c50:	90 e0       	ldi	r25, 0x00	; 0
    2c52:	0e 94 5b 21 	call	0x42b6	; 0x42b6 <eeprom_read_byte>
    2c56:	b4 cf       	rjmp	.-152    	; 0x2bc0 <decrement_MainItem+0x58>
    2c58:	91 30       	cpi	r25, 0x01	; 1
    2c5a:	d1 f4       	brne	.+52     	; 0x2c90 <decrement_MainItem+0x128>
    2c5c:	80 91 86 05 	lds	r24, 0x0586	; 0x800586 <VALUE2>
    2c60:	81 50       	subi	r24, 0x01	; 1
    2c62:	80 93 86 05 	sts	0x0586, r24	; 0x800586 <VALUE2>
    2c66:	20 91 8a 05 	lds	r18, 0x058A	; 0x80058a <SFTM_ITM>
    2c6a:	2c 30       	cpi	r18, 0x0C	; 12
    2c6c:	41 f4       	brne	.+16     	; 0x2c7e <decrement_MainItem+0x116>
    2c6e:	81 11       	cpse	r24, r1
    2c70:	04 c0       	rjmp	.+8      	; 0x2c7a <decrement_MainItem+0x112>
    2c72:	82 e0       	ldi	r24, 0x02	; 2
    2c74:	80 93 86 05 	sts	0x0586, r24	; 0x800586 <VALUE2>
    2c78:	02 c0       	rjmp	.+4      	; 0x2c7e <decrement_MainItem+0x116>
    2c7a:	90 93 86 05 	sts	0x0586, r25	; 0x800586 <VALUE2>
    2c7e:	80 91 60 05 	lds	r24, 0x0560	; 0x800560 <VALUE5>
    2c82:	90 91 61 05 	lds	r25, 0x0561	; 0x800561 <VALUE5+0x1>
    2c86:	01 97       	sbiw	r24, 0x01	; 1
    2c88:	90 93 61 05 	sts	0x0561, r25	; 0x800561 <VALUE5+0x1>
    2c8c:	80 93 60 05 	sts	0x0560, r24	; 0x800560 <VALUE5>
    2c90:	df 91       	pop	r29
    2c92:	cf 91       	pop	r28
    2c94:	08 95       	ret

00002c96 <ButtonCheck>:
    2c96:	0f 93       	push	r16
    2c98:	1f 93       	push	r17
    2c9a:	cf 93       	push	r28
    2c9c:	df 93       	push	r29
    2c9e:	53 b3       	in	r21, 0x13	; 19
    2ca0:	43 b3       	in	r20, 0x13	; 19
    2ca2:	33 b3       	in	r19, 0x13	; 19
    2ca4:	23 b3       	in	r18, 0x13	; 19
    2ca6:	85 2f       	mov	r24, r21
    2ca8:	81 70       	andi	r24, 0x01	; 1
    2caa:	90 e0       	ldi	r25, 0x00	; 0
    2cac:	42 70       	andi	r20, 0x02	; 2
    2cae:	84 0f       	add	r24, r20
    2cb0:	91 1d       	adc	r25, r1
    2cb2:	38 70       	andi	r19, 0x08	; 8
    2cb4:	83 0f       	add	r24, r19
    2cb6:	91 1d       	adc	r25, r1
    2cb8:	20 72       	andi	r18, 0x20	; 32
    2cba:	8c 01       	movw	r16, r24
    2cbc:	02 0f       	add	r16, r18
    2cbe:	11 1d       	adc	r17, r1
    2cc0:	08 32       	cpi	r16, 0x28	; 40
    2cc2:	11 05       	cpc	r17, r1
    2cc4:	b9 f4       	brne	.+46     	; 0x2cf4 <ButtonCheck+0x5e>
    2cc6:	80 e0       	ldi	r24, 0x00	; 0
    2cc8:	90 e0       	ldi	r25, 0x00	; 0
    2cca:	0e 94 72 09 	call	0x12e4	; 0x12e4 <save_record_no>
    2cce:	60 e0       	ldi	r22, 0x00	; 0
    2cd0:	88 e9       	ldi	r24, 0x98	; 152
    2cd2:	90 e0       	ldi	r25, 0x00	; 0
    2cd4:	0e 94 68 21 	call	0x42d0	; 0x42d0 <eeprom_write_byte>
    2cd8:	0e 94 33 01 	call	0x266	; 0x266 <lcdClear>
    2cdc:	80 e8       	ldi	r24, 0x80	; 128
    2cde:	0e 94 9e 00 	call	0x13c	; 0x13c <lcdControlWrite>
    2ce2:	6a e0       	ldi	r22, 0x0A	; 10
    2ce4:	86 e8       	ldi	r24, 0x86	; 134
    2ce6:	92 e0       	ldi	r25, 0x02	; 2
    2ce8:	0e 94 35 01 	call	0x26a	; 0x26a <lcdPrintData>
    2cec:	0e 94 4a 01 	call	0x294	; 0x294 <disp_delay>
    2cf0:	0e 94 4a 01 	call	0x294	; 0x294 <disp_delay>
    2cf4:	80 91 7c 05 	lds	r24, 0x057C	; 0x80057c <LeisureBIT>
    2cf8:	90 91 7d 05 	lds	r25, 0x057D	; 0x80057d <LeisureBIT+0x1>
    2cfc:	01 96       	adiw	r24, 0x01	; 1
    2cfe:	90 93 7d 05 	sts	0x057D, r25	; 0x80057d <LeisureBIT+0x1>
    2d02:	80 93 7c 05 	sts	0x057C, r24	; 0x80057c <LeisureBIT>
    2d06:	85 3f       	cpi	r24, 0xF5	; 245
    2d08:	91 40       	sbci	r25, 0x01	; 1
    2d0a:	88 f0       	brcs	.+34     	; 0x2d2e <ButtonCheck+0x98>
    2d0c:	10 92 89 05 	sts	0x0589, r1	; 0x800589 <BUTTON>
    2d10:	82 e0       	ldi	r24, 0x02	; 2
    2d12:	80 93 77 05 	sts	0x0577, r24	; 0x800577 <POK>
    2d16:	10 92 8a 05 	sts	0x058A, r1	; 0x80058a <SFTM_ITM>
    2d1a:	86 e2       	ldi	r24, 0x26	; 38
    2d1c:	92 e0       	ldi	r25, 0x02	; 2
    2d1e:	90 93 7d 05 	sts	0x057D, r25	; 0x80057d <LeisureBIT+0x1>
    2d22:	80 93 7c 05 	sts	0x057C, r24	; 0x80057c <LeisureBIT>
    2d26:	80 91 65 00 	lds	r24, 0x0065	; 0x800065 <__TEXT_REGION_LENGTH__+0x7e0065>
    2d2a:	8d 7f       	andi	r24, 0xFD	; 253
    2d2c:	03 c0       	rjmp	.+6      	; 0x2d34 <ButtonCheck+0x9e>
    2d2e:	80 91 65 00 	lds	r24, 0x0065	; 0x800065 <__TEXT_REGION_LENGTH__+0x7e0065>
    2d32:	82 60       	ori	r24, 0x02	; 2
    2d34:	80 93 65 00 	sts	0x0065, r24	; 0x800065 <__TEXT_REGION_LENGTH__+0x7e0065>
    2d38:	80 91 7c 05 	lds	r24, 0x057C	; 0x80057c <LeisureBIT>
    2d3c:	90 91 7d 05 	lds	r25, 0x057D	; 0x80057d <LeisureBIT+0x1>
    2d40:	8d 32       	cpi	r24, 0x2D	; 45
    2d42:	91 40       	sbci	r25, 0x01	; 1
    2d44:	10 f0       	brcs	.+4      	; 0x2d4a <ButtonCheck+0xb4>
    2d46:	10 92 15 05 	sts	0x0515, r1	; 0x800515 <SEC_DISP>
    2d4a:	0b 32       	cpi	r16, 0x2B	; 43
    2d4c:	11 05       	cpc	r17, r1
    2d4e:	09 f4       	brne	.+2      	; 0x2d52 <ButtonCheck+0xbc>
    2d50:	bd c1       	rjmp	.+890    	; 0x30cc <ButtonCheck+0x436>
    2d52:	83 b3       	in	r24, 0x13	; 19
    2d54:	81 70       	andi	r24, 0x01	; 1
    2d56:	c8 2f       	mov	r28, r24
    2d58:	e0 e0       	ldi	r30, 0x00	; 0
    2d5a:	de 2f       	mov	r29, r30
    2d5c:	43 b3       	in	r20, 0x13	; 19
    2d5e:	42 70       	andi	r20, 0x02	; 2
    2d60:	50 e0       	ldi	r21, 0x00	; 0
    2d62:	23 b3       	in	r18, 0x13	; 19
    2d64:	28 70       	andi	r18, 0x08	; 8
    2d66:	30 e0       	ldi	r19, 0x00	; 0
    2d68:	83 b3       	in	r24, 0x13	; 19
    2d6a:	80 72       	andi	r24, 0x20	; 32
    2d6c:	90 e0       	ldi	r25, 0x00	; 0
    2d6e:	be 01       	movw	r22, r28
    2d70:	64 0f       	add	r22, r20
    2d72:	75 1f       	adc	r23, r21
    2d74:	62 0f       	add	r22, r18
    2d76:	73 1f       	adc	r23, r19
    2d78:	68 0f       	add	r22, r24
    2d7a:	79 1f       	adc	r23, r25
    2d7c:	6b 32       	cpi	r22, 0x2B	; 43
    2d7e:	71 05       	cpc	r23, r1
    2d80:	09 f4       	brne	.+2      	; 0x2d84 <ButtonCheck+0xee>
    2d82:	a4 c1       	rjmp	.+840    	; 0x30cc <ButtonCheck+0x436>
    2d84:	db 9a       	sbi	0x1b, 3	; 27
    2d86:	ff ef       	ldi	r31, 0xFF	; 255
    2d88:	a0 e7       	ldi	r26, 0x70	; 112
    2d8a:	e2 e0       	ldi	r30, 0x02	; 2
    2d8c:	f1 50       	subi	r31, 0x01	; 1
    2d8e:	a0 40       	sbci	r26, 0x00	; 0
    2d90:	e0 40       	sbci	r30, 0x00	; 0
    2d92:	e1 f7       	brne	.-8      	; 0x2d8c <ButtonCheck+0xf6>
    2d94:	00 c0       	rjmp	.+0      	; 0x2d96 <ButtonCheck+0x100>
    2d96:	00 00       	nop
    2d98:	db 98       	cbi	0x1b, 3	; 27
    2d9a:	6a 32       	cpi	r22, 0x2A	; 42
    2d9c:	71 05       	cpc	r23, r1
    2d9e:	09 f0       	breq	.+2      	; 0x2da2 <ButtonCheck+0x10c>
    2da0:	d9 c0       	rjmp	.+434    	; 0x2f54 <ButtonCheck+0x2be>
    2da2:	10 92 7d 05 	sts	0x057D, r1	; 0x80057d <LeisureBIT+0x1>
    2da6:	10 92 7c 05 	sts	0x057C, r1	; 0x80057c <LeisureBIT>
    2daa:	88 e1       	ldi	r24, 0x18	; 24
    2dac:	9f e0       	ldi	r25, 0x0F	; 15
    2dae:	c1 30       	cpi	r28, 0x01	; 1
    2db0:	d1 05       	cpc	r29, r1
    2db2:	69 f0       	breq	.+26     	; 0x2dce <ButtonCheck+0x138>
    2db4:	23 b3       	in	r18, 0x13	; 19
    2db6:	21 70       	andi	r18, 0x01	; 1
    2db8:	c2 2f       	mov	r28, r18
    2dba:	f0 e0       	ldi	r31, 0x00	; 0
    2dbc:	df 2f       	mov	r29, r31
    2dbe:	a8 95       	wdr
    2dc0:	0f b6       	in	r0, 0x3f	; 63
    2dc2:	f8 94       	cli
    2dc4:	a8 95       	wdr
    2dc6:	81 bd       	out	0x21, r24	; 33
    2dc8:	0f be       	out	0x3f, r0	; 63
    2dca:	91 bd       	out	0x21, r25	; 33
    2dcc:	f0 cf       	rjmp	.-32     	; 0x2dae <ButtonCheck+0x118>
    2dce:	80 91 89 05 	lds	r24, 0x0589	; 0x800589 <BUTTON>
    2dd2:	81 11       	cpse	r24, r1
    2dd4:	0b c0       	rjmp	.+22     	; 0x2dec <ButtonCheck+0x156>
    2dd6:	d0 93 7f 05 	sts	0x057F, r29	; 0x80057f <MAINMENU+0x1>
    2dda:	c0 93 7e 05 	sts	0x057E, r28	; 0x80057e <MAINMENU>
    2dde:	81 e0       	ldi	r24, 0x01	; 1
    2de0:	80 93 89 05 	sts	0x0589, r24	; 0x800589 <BUTTON>
    2de4:	10 92 88 05 	sts	0x0588, r1	; 0x800588 <level>
    2de8:	80 93 8a 05 	sts	0x058A, r24	; 0x80058a <SFTM_ITM>
    2dec:	80 91 77 05 	lds	r24, 0x0577	; 0x800577 <POK>
    2df0:	81 11       	cpse	r24, r1
    2df2:	28 c0       	rjmp	.+80     	; 0x2e44 <ButtonCheck+0x1ae>
    2df4:	80 91 7e 05 	lds	r24, 0x057E	; 0x80057e <MAINMENU>
    2df8:	90 91 7f 05 	lds	r25, 0x057F	; 0x80057f <MAINMENU+0x1>
    2dfc:	01 97       	sbiw	r24, 0x01	; 1
    2dfe:	09 f0       	breq	.+2      	; 0x2e02 <ButtonCheck+0x16c>
    2e00:	a5 c0       	rjmp	.+330    	; 0x2f4c <ButtonCheck+0x2b6>
    2e02:	80 91 76 05 	lds	r24, 0x0576	; 0x800576 <PASS>
    2e06:	90 91 89 05 	lds	r25, 0x0589	; 0x800589 <BUTTON>
    2e0a:	81 11       	cpse	r24, r1
    2e0c:	07 c0       	rjmp	.+14     	; 0x2e1c <ButtonCheck+0x186>
    2e0e:	92 30       	cpi	r25, 0x02	; 2
    2e10:	09 f0       	breq	.+2      	; 0x2e14 <ButtonCheck+0x17e>
    2e12:	9c c0       	rjmp	.+312    	; 0x2f4c <ButtonCheck+0x2b6>
    2e14:	81 e0       	ldi	r24, 0x01	; 1
    2e16:	80 93 76 05 	sts	0x0576, r24	; 0x800576 <PASS>
    2e1a:	98 c0       	rjmp	.+304    	; 0x2f4c <ButtonCheck+0x2b6>
    2e1c:	81 30       	cpi	r24, 0x01	; 1
    2e1e:	09 f0       	breq	.+2      	; 0x2e22 <ButtonCheck+0x18c>
    2e20:	95 c0       	rjmp	.+298    	; 0x2f4c <ButtonCheck+0x2b6>
    2e22:	93 30       	cpi	r25, 0x03	; 3
    2e24:	09 f0       	breq	.+2      	; 0x2e28 <ButtonCheck+0x192>
    2e26:	92 c0       	rjmp	.+292    	; 0x2f4c <ButtonCheck+0x2b6>
    2e28:	90 91 04 01 	lds	r25, 0x0104	; 0x800104 <PVALUE>
    2e2c:	97 38       	cpi	r25, 0x87	; 135
    2e2e:	39 f0       	breq	.+14     	; 0x2e3e <ButtonCheck+0x1a8>
    2e30:	10 92 89 05 	sts	0x0589, r1	; 0x800589 <BUTTON>
    2e34:	10 92 7f 05 	sts	0x057F, r1	; 0x80057f <MAINMENU+0x1>
    2e38:	10 92 7e 05 	sts	0x057E, r1	; 0x80057e <MAINMENU>
    2e3c:	82 e0       	ldi	r24, 0x02	; 2
    2e3e:	80 93 77 05 	sts	0x0577, r24	; 0x800577 <POK>
    2e42:	84 c0       	rjmp	.+264    	; 0x2f4c <ButtonCheck+0x2b6>
    2e44:	81 30       	cpi	r24, 0x01	; 1
    2e46:	09 f0       	breq	.+2      	; 0x2e4a <ButtonCheck+0x1b4>
    2e48:	41 c1       	rjmp	.+642    	; 0x30cc <ButtonCheck+0x436>
    2e4a:	80 91 7e 05 	lds	r24, 0x057E	; 0x80057e <MAINMENU>
    2e4e:	90 91 7f 05 	lds	r25, 0x057F	; 0x80057f <MAINMENU+0x1>
    2e52:	01 97       	sbiw	r24, 0x01	; 1
    2e54:	09 f0       	breq	.+2      	; 0x2e58 <ButtonCheck+0x1c2>
    2e56:	3a c1       	rjmp	.+628    	; 0x30cc <ButtonCheck+0x436>
    2e58:	80 91 89 05 	lds	r24, 0x0589	; 0x800589 <BUTTON>
    2e5c:	20 91 88 05 	lds	r18, 0x0588	; 0x800588 <level>
    2e60:	91 e0       	ldi	r25, 0x01	; 1
    2e62:	21 11       	cpse	r18, r1
    2e64:	90 e0       	ldi	r25, 0x00	; 0
    2e66:	81 30       	cpi	r24, 0x01	; 1
    2e68:	71 f4       	brne	.+28     	; 0x2e86 <ButtonCheck+0x1f0>
    2e6a:	99 23       	and	r25, r25
    2e6c:	09 f4       	brne	.+2      	; 0x2e70 <ButtonCheck+0x1da>
    2e6e:	6e c0       	rjmp	.+220    	; 0x2f4c <ButtonCheck+0x2b6>
    2e70:	80 91 8a 05 	lds	r24, 0x058A	; 0x80058a <SFTM_ITM>
    2e74:	81 30       	cpi	r24, 0x01	; 1
    2e76:	09 f0       	breq	.+2      	; 0x2e7a <ButtonCheck+0x1e4>
    2e78:	69 c0       	rjmp	.+210    	; 0x2f4c <ButtonCheck+0x2b6>
    2e7a:	80 91 22 06 	lds	r24, 0x0622	; 0x800622 <aE>
    2e7e:	90 e0       	ldi	r25, 0x00	; 0
    2e80:	0e 94 5b 21 	call	0x42b6	; 0x42b6 <eeprom_read_byte>
    2e84:	44 c0       	rjmp	.+136    	; 0x2f0e <ButtonCheck+0x278>
    2e86:	82 30       	cpi	r24, 0x02	; 2
    2e88:	69 f4       	brne	.+26     	; 0x2ea4 <ButtonCheck+0x20e>
    2e8a:	99 23       	and	r25, r25
    2e8c:	09 f4       	brne	.+2      	; 0x2e90 <ButtonCheck+0x1fa>
    2e8e:	5e c0       	rjmp	.+188    	; 0x2f4c <ButtonCheck+0x2b6>
    2e90:	81 e0       	ldi	r24, 0x01	; 1
    2e92:	80 93 88 05 	sts	0x0588, r24	; 0x800588 <level>
    2e96:	81 e0       	ldi	r24, 0x01	; 1
    2e98:	90 e0       	ldi	r25, 0x00	; 0
    2e9a:	90 93 7b 05 	sts	0x057B, r25	; 0x80057b <sub_level2+0x1>
    2e9e:	80 93 7a 05 	sts	0x057A, r24	; 0x80057a <sub_level2>
    2ea2:	54 c0       	rjmp	.+168    	; 0x2f4c <ButtonCheck+0x2b6>
    2ea4:	83 30       	cpi	r24, 0x03	; 3
    2ea6:	09 f0       	breq	.+2      	; 0x2eaa <ButtonCheck+0x214>
    2ea8:	51 c0       	rjmp	.+162    	; 0x2f4c <ButtonCheck+0x2b6>
    2eaa:	21 30       	cpi	r18, 0x01	; 1
    2eac:	09 f0       	breq	.+2      	; 0x2eb0 <ButtonCheck+0x21a>
    2eae:	4e c0       	rjmp	.+156    	; 0x2f4c <ButtonCheck+0x2b6>
    2eb0:	90 91 8a 05 	lds	r25, 0x058A	; 0x80058a <SFTM_ITM>
    2eb4:	84 ef       	ldi	r24, 0xF4	; 244
    2eb6:	89 0f       	add	r24, r25
    2eb8:	31 e0       	ldi	r19, 0x01	; 1
    2eba:	82 30       	cpi	r24, 0x02	; 2
    2ebc:	08 f0       	brcs	.+2      	; 0x2ec0 <ButtonCheck+0x22a>
    2ebe:	30 e0       	ldi	r19, 0x00	; 0
    2ec0:	81 e0       	ldi	r24, 0x01	; 1
    2ec2:	2a ef       	ldi	r18, 0xFA	; 250
    2ec4:	29 0f       	add	r18, r25
    2ec6:	23 30       	cpi	r18, 0x03	; 3
    2ec8:	08 f0       	brcs	.+2      	; 0x2ecc <ButtonCheck+0x236>
    2eca:	80 e0       	ldi	r24, 0x00	; 0
    2ecc:	83 2b       	or	r24, r19
    2ece:	11 f4       	brne	.+4      	; 0x2ed4 <ButtonCheck+0x23e>
    2ed0:	94 30       	cpi	r25, 0x04	; 4
    2ed2:	20 f4       	brcc	.+8      	; 0x2edc <ButtonCheck+0x246>
    2ed4:	82 e0       	ldi	r24, 0x02	; 2
    2ed6:	80 93 88 05 	sts	0x0588, r24	; 0x800588 <level>
    2eda:	38 c0       	rjmp	.+112    	; 0x2f4c <ButtonCheck+0x2b6>
    2edc:	80 91 7a 05 	lds	r24, 0x057A	; 0x80057a <sub_level2>
    2ee0:	90 91 7b 05 	lds	r25, 0x057B	; 0x80057b <sub_level2+0x1>
    2ee4:	81 30       	cpi	r24, 0x01	; 1
    2ee6:	91 05       	cpc	r25, r1
    2ee8:	a9 f4       	brne	.+42     	; 0x2f14 <ButtonCheck+0x27e>
    2eea:	81 e0       	ldi	r24, 0x01	; 1
    2eec:	80 93 88 05 	sts	0x0588, r24	; 0x800588 <level>
    2ef0:	82 e0       	ldi	r24, 0x02	; 2
    2ef2:	80 93 89 05 	sts	0x0589, r24	; 0x800589 <BUTTON>
    2ef6:	82 e0       	ldi	r24, 0x02	; 2
    2ef8:	90 e0       	ldi	r25, 0x00	; 0
    2efa:	90 93 7b 05 	sts	0x057B, r25	; 0x80057b <sub_level2+0x1>
    2efe:	80 93 7a 05 	sts	0x057A, r24	; 0x80057a <sub_level2>
    2f02:	80 91 86 05 	lds	r24, 0x0586	; 0x800586 <VALUE2>
    2f06:	80 93 40 05 	sts	0x0540, r24	; 0x800540 <tmpsave1>
    2f0a:	80 91 84 05 	lds	r24, 0x0584	; 0x800584 <VALUE3>
    2f0e:	80 93 86 05 	sts	0x0586, r24	; 0x800586 <VALUE2>
    2f12:	1c c0       	rjmp	.+56     	; 0x2f4c <ButtonCheck+0x2b6>
    2f14:	02 97       	sbiw	r24, 0x02	; 2
    2f16:	99 f4       	brne	.+38     	; 0x2f3e <ButtonCheck+0x2a8>
    2f18:	81 e0       	ldi	r24, 0x01	; 1
    2f1a:	80 93 88 05 	sts	0x0588, r24	; 0x800588 <level>
    2f1e:	82 e0       	ldi	r24, 0x02	; 2
    2f20:	80 93 89 05 	sts	0x0589, r24	; 0x800589 <BUTTON>
    2f24:	83 e0       	ldi	r24, 0x03	; 3
    2f26:	90 e0       	ldi	r25, 0x00	; 0
    2f28:	90 93 7b 05 	sts	0x057B, r25	; 0x80057b <sub_level2+0x1>
    2f2c:	80 93 7a 05 	sts	0x057A, r24	; 0x80057a <sub_level2>
    2f30:	80 91 86 05 	lds	r24, 0x0586	; 0x800586 <VALUE2>
    2f34:	80 93 3f 05 	sts	0x053F, r24	; 0x80053f <tmpsave2>
    2f38:	80 91 83 05 	lds	r24, 0x0583	; 0x800583 <VALUE4>
    2f3c:	e8 cf       	rjmp	.-48     	; 0x2f0e <ButtonCheck+0x278>
    2f3e:	82 e0       	ldi	r24, 0x02	; 2
    2f40:	80 93 88 05 	sts	0x0588, r24	; 0x800588 <level>
    2f44:	10 92 7b 05 	sts	0x057B, r1	; 0x80057b <sub_level2+0x1>
    2f48:	10 92 7a 05 	sts	0x057A, r1	; 0x80057a <sub_level2>
    2f4c:	80 91 89 05 	lds	r24, 0x0589	; 0x800589 <BUTTON>
    2f50:	8f 5f       	subi	r24, 0xFF	; 255
    2f52:	5e c0       	rjmp	.+188    	; 0x3010 <ButtonCheck+0x37a>
    2f54:	69 32       	cpi	r22, 0x29	; 41
    2f56:	71 05       	cpc	r23, r1
    2f58:	f9 f4       	brne	.+62     	; 0x2f98 <ButtonCheck+0x302>
    2f5a:	10 92 7d 05 	sts	0x057D, r1	; 0x80057d <LeisureBIT+0x1>
    2f5e:	10 92 7c 05 	sts	0x057C, r1	; 0x80057c <LeisureBIT>
    2f62:	80 91 89 05 	lds	r24, 0x0589	; 0x800589 <BUTTON>
    2f66:	83 30       	cpi	r24, 0x03	; 3
    2f68:	08 f0       	brcs	.+2      	; 0x2f6c <ButtonCheck+0x2d6>
    2f6a:	7e c0       	rjmp	.+252    	; 0x3068 <ButtonCheck+0x3d2>
    2f6c:	98 e1       	ldi	r25, 0x18	; 24
    2f6e:	2f e0       	ldi	r18, 0x0F	; 15
    2f70:	42 30       	cpi	r20, 0x02	; 2
    2f72:	51 05       	cpc	r21, r1
    2f74:	59 f0       	breq	.+22     	; 0x2f8c <ButtonCheck+0x2f6>
    2f76:	43 b3       	in	r20, 0x13	; 19
    2f78:	42 70       	andi	r20, 0x02	; 2
    2f7a:	50 e0       	ldi	r21, 0x00	; 0
    2f7c:	a8 95       	wdr
    2f7e:	0f b6       	in	r0, 0x3f	; 63
    2f80:	f8 94       	cli
    2f82:	a8 95       	wdr
    2f84:	91 bd       	out	0x21, r25	; 33
    2f86:	0f be       	out	0x3f, r0	; 63
    2f88:	21 bd       	out	0x21, r18	; 33
    2f8a:	f2 cf       	rjmp	.-28     	; 0x2f70 <ButtonCheck+0x2da>
    2f8c:	81 11       	cpse	r24, r1
    2f8e:	6c c0       	rjmp	.+216    	; 0x3068 <ButtonCheck+0x3d2>
    2f90:	81 e0       	ldi	r24, 0x01	; 1
    2f92:	80 93 15 05 	sts	0x0515, r24	; 0x800515 <SEC_DISP>
    2f96:	9a c0       	rjmp	.+308    	; 0x30cc <ButtonCheck+0x436>
    2f98:	63 32       	cpi	r22, 0x23	; 35
    2f9a:	71 05       	cpc	r23, r1
    2f9c:	09 f0       	breq	.+2      	; 0x2fa0 <ButtonCheck+0x30a>
    2f9e:	3b c0       	rjmp	.+118    	; 0x3016 <ButtonCheck+0x380>
    2fa0:	10 92 7d 05 	sts	0x057D, r1	; 0x80057d <LeisureBIT+0x1>
    2fa4:	10 92 7c 05 	sts	0x057C, r1	; 0x80057c <LeisureBIT>
    2fa8:	80 91 89 05 	lds	r24, 0x0589	; 0x800589 <BUTTON>
    2fac:	83 30       	cpi	r24, 0x03	; 3
    2fae:	a8 f4       	brcc	.+42     	; 0x2fda <ButtonCheck+0x344>
    2fb0:	98 e1       	ldi	r25, 0x18	; 24
    2fb2:	4f e0       	ldi	r20, 0x0F	; 15
    2fb4:	28 30       	cpi	r18, 0x08	; 8
    2fb6:	31 05       	cpc	r19, r1
    2fb8:	59 f0       	breq	.+22     	; 0x2fd0 <ButtonCheck+0x33a>
    2fba:	23 b3       	in	r18, 0x13	; 19
    2fbc:	28 70       	andi	r18, 0x08	; 8
    2fbe:	30 e0       	ldi	r19, 0x00	; 0
    2fc0:	a8 95       	wdr
    2fc2:	0f b6       	in	r0, 0x3f	; 63
    2fc4:	f8 94       	cli
    2fc6:	a8 95       	wdr
    2fc8:	91 bd       	out	0x21, r25	; 33
    2fca:	0f be       	out	0x3f, r0	; 63
    2fcc:	41 bd       	out	0x21, r20	; 33
    2fce:	f2 cf       	rjmp	.-28     	; 0x2fb4 <ButtonCheck+0x31e>
    2fd0:	81 11       	cpse	r24, r1
    2fd2:	03 c0       	rjmp	.+6      	; 0x2fda <ButtonCheck+0x344>
    2fd4:	10 92 15 05 	sts	0x0515, r1	; 0x800515 <SEC_DISP>
    2fd8:	79 c0       	rjmp	.+242    	; 0x30cc <ButtonCheck+0x436>
    2fda:	80 91 77 05 	lds	r24, 0x0577	; 0x800577 <POK>
    2fde:	81 30       	cpi	r24, 0x01	; 1
    2fe0:	09 f0       	breq	.+2      	; 0x2fe4 <ButtonCheck+0x34e>
    2fe2:	65 c0       	rjmp	.+202    	; 0x30ae <ButtonCheck+0x418>
    2fe4:	80 91 7e 05 	lds	r24, 0x057E	; 0x80057e <MAINMENU>
    2fe8:	90 91 7f 05 	lds	r25, 0x057F	; 0x80057f <MAINMENU+0x1>
    2fec:	01 97       	sbiw	r24, 0x01	; 1
    2fee:	09 f0       	breq	.+2      	; 0x2ff2 <ButtonCheck+0x35c>
    2ff0:	6d c0       	rjmp	.+218    	; 0x30cc <ButtonCheck+0x436>
    2ff2:	80 91 8a 05 	lds	r24, 0x058A	; 0x80058a <SFTM_ITM>
    2ff6:	89 30       	cpi	r24, 0x09	; 9
    2ff8:	09 f0       	breq	.+2      	; 0x2ffc <ButtonCheck+0x366>
    2ffa:	63 c0       	rjmp	.+198    	; 0x30c2 <ButtonCheck+0x42c>
    2ffc:	80 91 88 05 	lds	r24, 0x0588	; 0x800588 <level>
    3000:	81 30       	cpi	r24, 0x01	; 1
    3002:	09 f0       	breq	.+2      	; 0x3006 <ButtonCheck+0x370>
    3004:	5e c0       	rjmp	.+188    	; 0x30c2 <ButtonCheck+0x42c>
    3006:	10 92 88 05 	sts	0x0588, r1	; 0x800588 <level>
    300a:	10 92 87 05 	sts	0x0587, r1	; 0x800587 <sub_level>
    300e:	81 e0       	ldi	r24, 0x01	; 1
    3010:	80 93 89 05 	sts	0x0589, r24	; 0x800589 <BUTTON>
    3014:	5b c0       	rjmp	.+182    	; 0x30cc <ButtonCheck+0x436>
    3016:	6b 30       	cpi	r22, 0x0B	; 11
    3018:	71 05       	cpc	r23, r1
    301a:	09 f0       	breq	.+2      	; 0x301e <ButtonCheck+0x388>
    301c:	57 c0       	rjmp	.+174    	; 0x30cc <ButtonCheck+0x436>
    301e:	10 92 7d 05 	sts	0x057D, r1	; 0x80057d <LeisureBIT+0x1>
    3022:	10 92 7c 05 	sts	0x057C, r1	; 0x80057c <LeisureBIT>
    3026:	28 e1       	ldi	r18, 0x18	; 24
    3028:	3f e0       	ldi	r19, 0x0F	; 15
    302a:	80 97       	sbiw	r24, 0x20	; 32
    302c:	59 f0       	breq	.+22     	; 0x3044 <ButtonCheck+0x3ae>
    302e:	83 b3       	in	r24, 0x13	; 19
    3030:	80 72       	andi	r24, 0x20	; 32
    3032:	90 e0       	ldi	r25, 0x00	; 0
    3034:	a8 95       	wdr
    3036:	0f b6       	in	r0, 0x3f	; 63
    3038:	f8 94       	cli
    303a:	a8 95       	wdr
    303c:	21 bd       	out	0x21, r18	; 33
    303e:	0f be       	out	0x3f, r0	; 63
    3040:	31 bd       	out	0x21, r19	; 33
    3042:	f3 cf       	rjmp	.-26     	; 0x302a <ButtonCheck+0x394>
    3044:	80 91 89 05 	lds	r24, 0x0589	; 0x800589 <BUTTON>
    3048:	88 23       	and	r24, r24
    304a:	09 f4       	brne	.+2      	; 0x304e <ButtonCheck+0x3b8>
    304c:	3f c0       	rjmp	.+126    	; 0x30cc <ButtonCheck+0x436>
    304e:	82 e0       	ldi	r24, 0x02	; 2
    3050:	80 93 77 05 	sts	0x0577, r24	; 0x800577 <POK>
    3054:	80 91 88 05 	lds	r24, 0x0588	; 0x800588 <level>
    3058:	81 11       	cpse	r24, r1
    305a:	03 c0       	rjmp	.+6      	; 0x3062 <ButtonCheck+0x3cc>
    305c:	10 92 89 05 	sts	0x0589, r1	; 0x800589 <BUTTON>
    3060:	35 c0       	rjmp	.+106    	; 0x30cc <ButtonCheck+0x436>
    3062:	81 30       	cpi	r24, 0x01	; 1
    3064:	99 f5       	brne	.+102    	; 0x30cc <ButtonCheck+0x436>
    3066:	cf cf       	rjmp	.-98     	; 0x3006 <ButtonCheck+0x370>
    3068:	80 91 77 05 	lds	r24, 0x0577	; 0x800577 <POK>
    306c:	81 30       	cpi	r24, 0x01	; 1
    306e:	b9 f4       	brne	.+46     	; 0x309e <ButtonCheck+0x408>
    3070:	80 91 7e 05 	lds	r24, 0x057E	; 0x80057e <MAINMENU>
    3074:	90 91 7f 05 	lds	r25, 0x057F	; 0x80057f <MAINMENU+0x1>
    3078:	01 97       	sbiw	r24, 0x01	; 1
    307a:	41 f5       	brne	.+80     	; 0x30cc <ButtonCheck+0x436>
    307c:	80 91 8a 05 	lds	r24, 0x058A	; 0x80058a <SFTM_ITM>
    3080:	89 30       	cpi	r24, 0x09	; 9
    3082:	41 f4       	brne	.+16     	; 0x3094 <ButtonCheck+0x3fe>
    3084:	80 91 88 05 	lds	r24, 0x0588	; 0x800588 <level>
    3088:	81 30       	cpi	r24, 0x01	; 1
    308a:	21 f4       	brne	.+8      	; 0x3094 <ButtonCheck+0x3fe>
    308c:	82 e0       	ldi	r24, 0x02	; 2
    308e:	80 93 88 05 	sts	0x0588, r24	; 0x800588 <level>
    3092:	1c c0       	rjmp	.+56     	; 0x30cc <ButtonCheck+0x436>
    3094:	df 91       	pop	r29
    3096:	cf 91       	pop	r28
    3098:	1f 91       	pop	r17
    309a:	0f 91       	pop	r16
    309c:	d1 cc       	rjmp	.-1630   	; 0x2a40 <increment_MainItem>
    309e:	80 91 76 05 	lds	r24, 0x0576	; 0x800576 <PASS>
    30a2:	81 30       	cpi	r24, 0x01	; 1
    30a4:	99 f4       	brne	.+38     	; 0x30cc <ButtonCheck+0x436>
    30a6:	80 91 04 01 	lds	r24, 0x0104	; 0x800104 <PVALUE>
    30aa:	8f 5f       	subi	r24, 0xFF	; 255
    30ac:	07 c0       	rjmp	.+14     	; 0x30bc <ButtonCheck+0x426>
    30ae:	80 91 76 05 	lds	r24, 0x0576	; 0x800576 <PASS>
    30b2:	81 30       	cpi	r24, 0x01	; 1
    30b4:	59 f4       	brne	.+22     	; 0x30cc <ButtonCheck+0x436>
    30b6:	80 91 04 01 	lds	r24, 0x0104	; 0x800104 <PVALUE>
    30ba:	81 50       	subi	r24, 0x01	; 1
    30bc:	80 93 04 01 	sts	0x0104, r24	; 0x800104 <PVALUE>
    30c0:	05 c0       	rjmp	.+10     	; 0x30cc <ButtonCheck+0x436>
    30c2:	df 91       	pop	r29
    30c4:	cf 91       	pop	r28
    30c6:	1f 91       	pop	r17
    30c8:	0f 91       	pop	r16
    30ca:	4e cd       	rjmp	.-1380   	; 0x2b68 <decrement_MainItem>
    30cc:	df 91       	pop	r29
    30ce:	cf 91       	pop	r28
    30d0:	1f 91       	pop	r17
    30d2:	0f 91       	pop	r16
    30d4:	08 95       	ret

000030d6 <menu_date_func>:
    30d6:	80 91 88 05 	lds	r24, 0x0588	; 0x800588 <level>
    30da:	88 23       	and	r24, r24
    30dc:	a9 f0       	breq	.+42     	; 0x3108 <menu_date_func+0x32>
    30de:	81 30       	cpi	r24, 0x01	; 1
    30e0:	09 f0       	breq	.+2      	; 0x30e4 <menu_date_func+0xe>
    30e2:	88 c0       	rjmp	.+272    	; 0x31f4 <menu_date_func+0x11e>
    30e4:	80 91 7a 05 	lds	r24, 0x057A	; 0x80057a <sub_level2>
    30e8:	90 91 7b 05 	lds	r25, 0x057B	; 0x80057b <sub_level2+0x1>
    30ec:	81 30       	cpi	r24, 0x01	; 1
    30ee:	91 05       	cpc	r25, r1
    30f0:	e1 f4       	brne	.+56     	; 0x312a <menu_date_func+0x54>
    30f2:	80 91 86 05 	lds	r24, 0x0586	; 0x800586 <VALUE2>
    30f6:	80 32       	cpi	r24, 0x20	; 32
    30f8:	18 f0       	brcs	.+6      	; 0x3100 <menu_date_func+0x2a>
    30fa:	8f e1       	ldi	r24, 0x1F	; 31
    30fc:	80 93 86 05 	sts	0x0586, r24	; 0x800586 <VALUE2>
    3100:	80 91 85 05 	lds	r24, 0x0585	; 0x800585 <blink>
    3104:	85 30       	cpi	r24, 0x05	; 5
    3106:	48 f4       	brcc	.+18     	; 0x311a <menu_date_func+0x44>
    3108:	80 91 86 05 	lds	r24, 0x0586	; 0x800586 <VALUE2>
    310c:	90 e0       	ldi	r25, 0x00	; 0
    310e:	0e 94 37 02 	call	0x46e	; 0x46e <disp_int>
    3112:	61 e0       	ldi	r22, 0x01	; 1
    3114:	84 e9       	ldi	r24, 0x94	; 148
    3116:	92 e0       	ldi	r25, 0x02	; 2
    3118:	03 c0       	rjmp	.+6      	; 0x3120 <menu_date_func+0x4a>
    311a:	63 e0       	ldi	r22, 0x03	; 3
    311c:	82 e9       	ldi	r24, 0x92	; 146
    311e:	92 e0       	ldi	r25, 0x02	; 2
    3120:	0e 94 35 01 	call	0x26a	; 0x26a <lcdPrintData>
    3124:	80 91 84 05 	lds	r24, 0x0584	; 0x800584 <VALUE3>
    3128:	1a c0       	rjmp	.+52     	; 0x315e <menu_date_func+0x88>
    312a:	82 30       	cpi	r24, 0x02	; 2
    312c:	91 05       	cpc	r25, r1
    312e:	61 f5       	brne	.+88     	; 0x3188 <menu_date_func+0xb2>
    3130:	80 91 86 05 	lds	r24, 0x0586	; 0x800586 <VALUE2>
    3134:	8d 30       	cpi	r24, 0x0D	; 13
    3136:	18 f0       	brcs	.+6      	; 0x313e <menu_date_func+0x68>
    3138:	8c e0       	ldi	r24, 0x0C	; 12
    313a:	80 93 86 05 	sts	0x0586, r24	; 0x800586 <VALUE2>
    313e:	90 91 85 05 	lds	r25, 0x0585	; 0x800585 <blink>
    3142:	80 91 40 05 	lds	r24, 0x0540	; 0x800540 <tmpsave1>
    3146:	95 30       	cpi	r25, 0x05	; 5
    3148:	c0 f4       	brcc	.+48     	; 0x317a <menu_date_func+0xa4>
    314a:	90 e0       	ldi	r25, 0x00	; 0
    314c:	0e 94 37 02 	call	0x46e	; 0x46e <disp_int>
    3150:	61 e0       	ldi	r22, 0x01	; 1
    3152:	84 e9       	ldi	r24, 0x94	; 148
    3154:	92 e0       	ldi	r25, 0x02	; 2
    3156:	0e 94 35 01 	call	0x26a	; 0x26a <lcdPrintData>
    315a:	80 91 86 05 	lds	r24, 0x0586	; 0x800586 <VALUE2>
    315e:	90 e0       	ldi	r25, 0x00	; 0
    3160:	0e 94 37 02 	call	0x46e	; 0x46e <disp_int>
    3164:	63 e0       	ldi	r22, 0x03	; 3
    3166:	89 e9       	ldi	r24, 0x99	; 153
    3168:	92 e0       	ldi	r25, 0x02	; 2
    316a:	0e 94 35 01 	call	0x26a	; 0x26a <lcdPrintData>
    316e:	80 91 83 05 	lds	r24, 0x0583	; 0x800583 <VALUE4>
    3172:	90 e0       	ldi	r25, 0x00	; 0
    3174:	0e 94 37 02 	call	0x46e	; 0x46e <disp_int>
    3178:	3d c0       	rjmp	.+122    	; 0x31f4 <menu_date_func+0x11e>
    317a:	90 e0       	ldi	r25, 0x00	; 0
    317c:	0e 94 37 02 	call	0x46e	; 0x46e <disp_int>
    3180:	66 e0       	ldi	r22, 0x06	; 6
    3182:	86 e9       	ldi	r24, 0x96	; 150
    3184:	92 e0       	ldi	r25, 0x02	; 2
    3186:	f1 cf       	rjmp	.-30     	; 0x316a <menu_date_func+0x94>
    3188:	03 97       	sbiw	r24, 0x03	; 3
    318a:	a1 f5       	brne	.+104    	; 0x31f4 <menu_date_func+0x11e>
    318c:	80 91 86 05 	lds	r24, 0x0586	; 0x800586 <VALUE2>
    3190:	8c 33       	cpi	r24, 0x3C	; 60
    3192:	18 f0       	brcs	.+6      	; 0x319a <menu_date_func+0xc4>
    3194:	8b e3       	ldi	r24, 0x3B	; 59
    3196:	80 93 86 05 	sts	0x0586, r24	; 0x800586 <VALUE2>
    319a:	90 91 85 05 	lds	r25, 0x0585	; 0x800585 <blink>
    319e:	80 91 40 05 	lds	r24, 0x0540	; 0x800540 <tmpsave1>
    31a2:	95 30       	cpi	r25, 0x05	; 5
    31a4:	a8 f4       	brcc	.+42     	; 0x31d0 <menu_date_func+0xfa>
    31a6:	90 e0       	ldi	r25, 0x00	; 0
    31a8:	0e 94 37 02 	call	0x46e	; 0x46e <disp_int>
    31ac:	61 e0       	ldi	r22, 0x01	; 1
    31ae:	84 e9       	ldi	r24, 0x94	; 148
    31b0:	92 e0       	ldi	r25, 0x02	; 2
    31b2:	0e 94 35 01 	call	0x26a	; 0x26a <lcdPrintData>
    31b6:	80 91 3f 05 	lds	r24, 0x053F	; 0x80053f <tmpsave2>
    31ba:	90 e0       	ldi	r25, 0x00	; 0
    31bc:	0e 94 37 02 	call	0x46e	; 0x46e <disp_int>
    31c0:	63 e0       	ldi	r22, 0x03	; 3
    31c2:	89 e9       	ldi	r24, 0x99	; 153
    31c4:	92 e0       	ldi	r25, 0x02	; 2
    31c6:	0e 94 35 01 	call	0x26a	; 0x26a <lcdPrintData>
    31ca:	80 91 86 05 	lds	r24, 0x0586	; 0x800586 <VALUE2>
    31ce:	d1 cf       	rjmp	.-94     	; 0x3172 <menu_date_func+0x9c>
    31d0:	90 e0       	ldi	r25, 0x00	; 0
    31d2:	0e 94 37 02 	call	0x46e	; 0x46e <disp_int>
    31d6:	61 e0       	ldi	r22, 0x01	; 1
    31d8:	84 e9       	ldi	r24, 0x94	; 148
    31da:	92 e0       	ldi	r25, 0x02	; 2
    31dc:	0e 94 35 01 	call	0x26a	; 0x26a <lcdPrintData>
    31e0:	80 91 3f 05 	lds	r24, 0x053F	; 0x80053f <tmpsave2>
    31e4:	90 e0       	ldi	r25, 0x00	; 0
    31e6:	0e 94 37 02 	call	0x46e	; 0x46e <disp_int>
    31ea:	65 e0       	ldi	r22, 0x05	; 5
    31ec:	8d e9       	ldi	r24, 0x9D	; 157
    31ee:	92 e0       	ldi	r25, 0x02	; 2
    31f0:	0e 94 35 01 	call	0x26a	; 0x26a <lcdPrintData>
    31f4:	64 e0       	ldi	r22, 0x04	; 4
    31f6:	88 e9       	ldi	r24, 0x98	; 152
    31f8:	93 e0       	ldi	r25, 0x03	; 3
    31fa:	0c 94 35 01 	jmp	0x26a	; 0x26a <lcdPrintData>

000031fe <menu_time_func>:
    31fe:	80 91 88 05 	lds	r24, 0x0588	; 0x800588 <level>
    3202:	88 23       	and	r24, r24
    3204:	a9 f0       	breq	.+42     	; 0x3230 <menu_time_func+0x32>
    3206:	81 30       	cpi	r24, 0x01	; 1
    3208:	09 f0       	breq	.+2      	; 0x320c <menu_time_func+0xe>
    320a:	88 c0       	rjmp	.+272    	; 0x331c <menu_time_func+0x11e>
    320c:	80 91 7a 05 	lds	r24, 0x057A	; 0x80057a <sub_level2>
    3210:	90 91 7b 05 	lds	r25, 0x057B	; 0x80057b <sub_level2+0x1>
    3214:	81 30       	cpi	r24, 0x01	; 1
    3216:	91 05       	cpc	r25, r1
    3218:	e1 f4       	brne	.+56     	; 0x3252 <menu_time_func+0x54>
    321a:	80 91 86 05 	lds	r24, 0x0586	; 0x800586 <VALUE2>
    321e:	88 31       	cpi	r24, 0x18	; 24
    3220:	18 f0       	brcs	.+6      	; 0x3228 <menu_time_func+0x2a>
    3222:	87 e1       	ldi	r24, 0x17	; 23
    3224:	80 93 86 05 	sts	0x0586, r24	; 0x800586 <VALUE2>
    3228:	80 91 85 05 	lds	r24, 0x0585	; 0x800585 <blink>
    322c:	85 30       	cpi	r24, 0x05	; 5
    322e:	48 f4       	brcc	.+18     	; 0x3242 <menu_time_func+0x44>
    3230:	80 91 86 05 	lds	r24, 0x0586	; 0x800586 <VALUE2>
    3234:	90 e0       	ldi	r25, 0x00	; 0
    3236:	0e 94 37 02 	call	0x46e	; 0x46e <disp_int>
    323a:	61 e0       	ldi	r22, 0x01	; 1
    323c:	86 ea       	ldi	r24, 0xA6	; 166
    323e:	92 e0       	ldi	r25, 0x02	; 2
    3240:	03 c0       	rjmp	.+6      	; 0x3248 <menu_time_func+0x4a>
    3242:	63 e0       	ldi	r22, 0x03	; 3
    3244:	84 ea       	ldi	r24, 0xA4	; 164
    3246:	92 e0       	ldi	r25, 0x02	; 2
    3248:	0e 94 35 01 	call	0x26a	; 0x26a <lcdPrintData>
    324c:	80 91 84 05 	lds	r24, 0x0584	; 0x800584 <VALUE3>
    3250:	1a c0       	rjmp	.+52     	; 0x3286 <menu_time_func+0x88>
    3252:	82 30       	cpi	r24, 0x02	; 2
    3254:	91 05       	cpc	r25, r1
    3256:	61 f5       	brne	.+88     	; 0x32b0 <menu_time_func+0xb2>
    3258:	80 91 86 05 	lds	r24, 0x0586	; 0x800586 <VALUE2>
    325c:	8c 33       	cpi	r24, 0x3C	; 60
    325e:	18 f0       	brcs	.+6      	; 0x3266 <menu_time_func+0x68>
    3260:	8b e3       	ldi	r24, 0x3B	; 59
    3262:	80 93 86 05 	sts	0x0586, r24	; 0x800586 <VALUE2>
    3266:	90 91 85 05 	lds	r25, 0x0585	; 0x800585 <blink>
    326a:	80 91 40 05 	lds	r24, 0x0540	; 0x800540 <tmpsave1>
    326e:	95 30       	cpi	r25, 0x05	; 5
    3270:	c0 f4       	brcc	.+48     	; 0x32a2 <menu_time_func+0xa4>
    3272:	90 e0       	ldi	r25, 0x00	; 0
    3274:	0e 94 37 02 	call	0x46e	; 0x46e <disp_int>
    3278:	61 e0       	ldi	r22, 0x01	; 1
    327a:	86 ea       	ldi	r24, 0xA6	; 166
    327c:	92 e0       	ldi	r25, 0x02	; 2
    327e:	0e 94 35 01 	call	0x26a	; 0x26a <lcdPrintData>
    3282:	80 91 86 05 	lds	r24, 0x0586	; 0x800586 <VALUE2>
    3286:	90 e0       	ldi	r25, 0x00	; 0
    3288:	0e 94 37 02 	call	0x46e	; 0x46e <disp_int>
    328c:	61 e0       	ldi	r22, 0x01	; 1
    328e:	86 ea       	ldi	r24, 0xA6	; 166
    3290:	92 e0       	ldi	r25, 0x02	; 2
    3292:	0e 94 35 01 	call	0x26a	; 0x26a <lcdPrintData>
    3296:	80 91 83 05 	lds	r24, 0x0583	; 0x800583 <VALUE4>
    329a:	90 e0       	ldi	r25, 0x00	; 0
    329c:	0e 94 37 02 	call	0x46e	; 0x46e <disp_int>
    32a0:	3d c0       	rjmp	.+122    	; 0x331c <menu_time_func+0x11e>
    32a2:	90 e0       	ldi	r25, 0x00	; 0
    32a4:	0e 94 37 02 	call	0x46e	; 0x46e <disp_int>
    32a8:	64 e0       	ldi	r22, 0x04	; 4
    32aa:	83 ea       	ldi	r24, 0xA3	; 163
    32ac:	92 e0       	ldi	r25, 0x02	; 2
    32ae:	f1 cf       	rjmp	.-30     	; 0x3292 <menu_time_func+0x94>
    32b0:	03 97       	sbiw	r24, 0x03	; 3
    32b2:	a1 f5       	brne	.+104    	; 0x331c <menu_time_func+0x11e>
    32b4:	80 91 86 05 	lds	r24, 0x0586	; 0x800586 <VALUE2>
    32b8:	8c 33       	cpi	r24, 0x3C	; 60
    32ba:	18 f0       	brcs	.+6      	; 0x32c2 <menu_time_func+0xc4>
    32bc:	8b e3       	ldi	r24, 0x3B	; 59
    32be:	80 93 86 05 	sts	0x0586, r24	; 0x800586 <VALUE2>
    32c2:	90 91 85 05 	lds	r25, 0x0585	; 0x800585 <blink>
    32c6:	80 91 40 05 	lds	r24, 0x0540	; 0x800540 <tmpsave1>
    32ca:	95 30       	cpi	r25, 0x05	; 5
    32cc:	a8 f4       	brcc	.+42     	; 0x32f8 <menu_time_func+0xfa>
    32ce:	90 e0       	ldi	r25, 0x00	; 0
    32d0:	0e 94 37 02 	call	0x46e	; 0x46e <disp_int>
    32d4:	61 e0       	ldi	r22, 0x01	; 1
    32d6:	86 ea       	ldi	r24, 0xA6	; 166
    32d8:	92 e0       	ldi	r25, 0x02	; 2
    32da:	0e 94 35 01 	call	0x26a	; 0x26a <lcdPrintData>
    32de:	80 91 3f 05 	lds	r24, 0x053F	; 0x80053f <tmpsave2>
    32e2:	90 e0       	ldi	r25, 0x00	; 0
    32e4:	0e 94 37 02 	call	0x46e	; 0x46e <disp_int>
    32e8:	61 e0       	ldi	r22, 0x01	; 1
    32ea:	86 ea       	ldi	r24, 0xA6	; 166
    32ec:	92 e0       	ldi	r25, 0x02	; 2
    32ee:	0e 94 35 01 	call	0x26a	; 0x26a <lcdPrintData>
    32f2:	80 91 86 05 	lds	r24, 0x0586	; 0x800586 <VALUE2>
    32f6:	d1 cf       	rjmp	.-94     	; 0x329a <menu_time_func+0x9c>
    32f8:	90 e0       	ldi	r25, 0x00	; 0
    32fa:	0e 94 37 02 	call	0x46e	; 0x46e <disp_int>
    32fe:	61 e0       	ldi	r22, 0x01	; 1
    3300:	86 ea       	ldi	r24, 0xA6	; 166
    3302:	92 e0       	ldi	r25, 0x02	; 2
    3304:	0e 94 35 01 	call	0x26a	; 0x26a <lcdPrintData>
    3308:	80 91 3f 05 	lds	r24, 0x053F	; 0x80053f <tmpsave2>
    330c:	90 e0       	ldi	r25, 0x00	; 0
    330e:	0e 94 37 02 	call	0x46e	; 0x46e <disp_int>
    3312:	63 e0       	ldi	r22, 0x03	; 3
    3314:	88 ea       	ldi	r24, 0xA8	; 168
    3316:	92 e0       	ldi	r25, 0x02	; 2
    3318:	0e 94 35 01 	call	0x26a	; 0x26a <lcdPrintData>
    331c:	66 e0       	ldi	r22, 0x06	; 6
    331e:	86 e9       	ldi	r24, 0x96	; 150
    3320:	93 e0       	ldi	r25, 0x03	; 3
    3322:	0c 94 35 01 	jmp	0x26a	; 0x26a <lcdPrintData>

00003326 <LCD_MENU2>:
    3326:	cf 93       	push	r28
    3328:	df 93       	push	r29
    332a:	ec 01       	movw	r28, r24
    332c:	80 e8       	ldi	r24, 0x80	; 128
    332e:	0e 94 9e 00 	call	0x13c	; 0x13c <lcdControlWrite>
    3332:	64 e1       	ldi	r22, 0x14	; 20
    3334:	8c ea       	ldi	r24, 0xAC	; 172
    3336:	92 e0       	ldi	r25, 0x02	; 2
    3338:	0e 94 35 01 	call	0x26a	; 0x26a <lcdPrintData>
    333c:	80 ec       	ldi	r24, 0xC0	; 192
    333e:	0e 94 9e 00 	call	0x13c	; 0x13c <lcdControlWrite>
    3342:	fe 01       	movw	r30, r28
    3344:	31 97       	sbiw	r30, 0x01	; 1
    3346:	ed 30       	cpi	r30, 0x0D	; 13
    3348:	f1 05       	cpc	r31, r1
    334a:	c0 f5       	brcc	.+112    	; 0x33bc <LCD_MENU2+0x96>
    334c:	ea 5b       	subi	r30, 0xBA	; 186
    334e:	ff 4f       	sbci	r31, 0xFF	; 255
    3350:	6f c7       	rjmp	.+3806   	; 0x4230 <__tablejump2__>
    3352:	60 e1       	ldi	r22, 0x10	; 16
    3354:	82 ec       	ldi	r24, 0xC2	; 194
    3356:	92 e0       	ldi	r25, 0x02	; 2
    3358:	2f c0       	rjmp	.+94     	; 0x33b8 <LCD_MENU2+0x92>
    335a:	60 e1       	ldi	r22, 0x10	; 16
    335c:	83 ed       	ldi	r24, 0xD3	; 211
    335e:	92 e0       	ldi	r25, 0x02	; 2
    3360:	2b c0       	rjmp	.+86     	; 0x33b8 <LCD_MENU2+0x92>
    3362:	6f e0       	ldi	r22, 0x0F	; 15
    3364:	84 ee       	ldi	r24, 0xE4	; 228
    3366:	92 e0       	ldi	r25, 0x02	; 2
    3368:	27 c0       	rjmp	.+78     	; 0x33b8 <LCD_MENU2+0x92>
    336a:	6c e0       	ldi	r22, 0x0C	; 12
    336c:	84 ef       	ldi	r24, 0xF4	; 244
    336e:	92 e0       	ldi	r25, 0x02	; 2
    3370:	23 c0       	rjmp	.+70     	; 0x33b8 <LCD_MENU2+0x92>
    3372:	6c e0       	ldi	r22, 0x0C	; 12
    3374:	81 e0       	ldi	r24, 0x01	; 1
    3376:	93 e0       	ldi	r25, 0x03	; 3
    3378:	1f c0       	rjmp	.+62     	; 0x33b8 <LCD_MENU2+0x92>
    337a:	64 e1       	ldi	r22, 0x14	; 20
    337c:	8e e0       	ldi	r24, 0x0E	; 14
    337e:	93 e0       	ldi	r25, 0x03	; 3
    3380:	1b c0       	rjmp	.+54     	; 0x33b8 <LCD_MENU2+0x92>
    3382:	64 e1       	ldi	r22, 0x14	; 20
    3384:	83 e2       	ldi	r24, 0x23	; 35
    3386:	93 e0       	ldi	r25, 0x03	; 3
    3388:	17 c0       	rjmp	.+46     	; 0x33b8 <LCD_MENU2+0x92>
    338a:	6e e0       	ldi	r22, 0x0E	; 14
    338c:	88 e3       	ldi	r24, 0x38	; 56
    338e:	93 e0       	ldi	r25, 0x03	; 3
    3390:	13 c0       	rjmp	.+38     	; 0x33b8 <LCD_MENU2+0x92>
    3392:	64 e1       	ldi	r22, 0x14	; 20
    3394:	87 e4       	ldi	r24, 0x47	; 71
    3396:	93 e0       	ldi	r25, 0x03	; 3
    3398:	0f c0       	rjmp	.+30     	; 0x33b8 <LCD_MENU2+0x92>
    339a:	66 e0       	ldi	r22, 0x06	; 6
    339c:	8c e5       	ldi	r24, 0x5C	; 92
    339e:	93 e0       	ldi	r25, 0x03	; 3
    33a0:	0b c0       	rjmp	.+22     	; 0x33b8 <LCD_MENU2+0x92>
    33a2:	66 e0       	ldi	r22, 0x06	; 6
    33a4:	83 e6       	ldi	r24, 0x63	; 99
    33a6:	93 e0       	ldi	r25, 0x03	; 3
    33a8:	07 c0       	rjmp	.+14     	; 0x33b8 <LCD_MENU2+0x92>
    33aa:	69 e0       	ldi	r22, 0x09	; 9
    33ac:	8a e6       	ldi	r24, 0x6A	; 106
    33ae:	93 e0       	ldi	r25, 0x03	; 3
    33b0:	03 c0       	rjmp	.+6      	; 0x33b8 <LCD_MENU2+0x92>
    33b2:	64 e1       	ldi	r22, 0x14	; 20
    33b4:	84 e7       	ldi	r24, 0x74	; 116
    33b6:	93 e0       	ldi	r25, 0x03	; 3
    33b8:	0e 94 35 01 	call	0x26a	; 0x26a <lcdPrintData>
    33bc:	90 91 88 05 	lds	r25, 0x0588	; 0x800588 <level>
    33c0:	99 23       	and	r25, r25
    33c2:	39 f0       	breq	.+14     	; 0x33d2 <LCD_MENU2+0xac>
    33c4:	80 91 85 05 	lds	r24, 0x0585	; 0x800585 <blink>
    33c8:	8f 5f       	subi	r24, 0xFF	; 255
    33ca:	80 93 85 05 	sts	0x0585, r24	; 0x800585 <blink>
    33ce:	8b 30       	cpi	r24, 0x0B	; 11
    33d0:	10 f0       	brcs	.+4      	; 0x33d6 <LCD_MENU2+0xb0>
    33d2:	10 92 85 05 	sts	0x0585, r1	; 0x800585 <blink>
    33d6:	80 91 8a 05 	lds	r24, 0x058A	; 0x80058a <SFTM_ITM>
    33da:	89 30       	cpi	r24, 0x09	; 9
    33dc:	91 f4       	brne	.+36     	; 0x3402 <LCD_MENU2+0xdc>
    33de:	84 e9       	ldi	r24, 0x94	; 148
    33e0:	0e 94 9e 00 	call	0x13c	; 0x13c <lcdControlWrite>
    33e4:	80 91 88 05 	lds	r24, 0x0588	; 0x800588 <level>
    33e8:	81 11       	cpse	r24, r1
    33ea:	04 c0       	rjmp	.+8      	; 0x33f4 <LCD_MENU2+0xce>
    33ec:	64 e1       	ldi	r22, 0x14	; 20
    33ee:	88 e8       	ldi	r24, 0x88	; 136
    33f0:	93 e0       	ldi	r25, 0x03	; 3
    33f2:	36 c1       	rjmp	.+620    	; 0x3660 <LCD_MENU2+0x33a>
    33f4:	81 30       	cpi	r24, 0x01	; 1
    33f6:	09 f0       	breq	.+2      	; 0x33fa <LCD_MENU2+0xd4>
    33f8:	35 c1       	rjmp	.+618    	; 0x3664 <LCD_MENU2+0x33e>
    33fa:	64 e1       	ldi	r22, 0x14	; 20
    33fc:	8d e9       	ldi	r24, 0x9D	; 157
    33fe:	93 e0       	ldi	r25, 0x03	; 3
    3400:	2f c1       	rjmp	.+606    	; 0x3660 <LCD_MENU2+0x33a>
    3402:	8b 30       	cpi	r24, 0x0B	; 11
    3404:	11 f4       	brne	.+4      	; 0x340a <LCD_MENU2+0xe4>
    3406:	67 de       	rcall	.-818    	; 0x30d6 <menu_date_func>
    3408:	2d c1       	rjmp	.+602    	; 0x3664 <LCD_MENU2+0x33e>
    340a:	8a 30       	cpi	r24, 0x0A	; 10
    340c:	11 f4       	brne	.+4      	; 0x3412 <LCD_MENU2+0xec>
    340e:	f7 de       	rcall	.-530    	; 0x31fe <menu_time_func>
    3410:	29 c1       	rjmp	.+594    	; 0x3664 <LCD_MENU2+0x33e>
    3412:	88 30       	cpi	r24, 0x08	; 8
    3414:	c1 f4       	brne	.+48     	; 0x3446 <LCD_MENU2+0x120>
    3416:	99 23       	and	r25, r25
    3418:	69 f0       	breq	.+26     	; 0x3434 <LCD_MENU2+0x10e>
    341a:	81 e0       	ldi	r24, 0x01	; 1
    341c:	80 93 88 05 	sts	0x0588, r24	; 0x800588 <level>
    3420:	80 91 85 05 	lds	r24, 0x0585	; 0x800585 <blink>
    3424:	85 30       	cpi	r24, 0x05	; 5
    3426:	30 f4       	brcc	.+12     	; 0x3434 <LCD_MENU2+0x10e>
    3428:	62 e0       	ldi	r22, 0x02	; 2
    342a:	8a e9       	ldi	r24, 0x9A	; 154
    342c:	93 e0       	ldi	r25, 0x03	; 3
    342e:	0e 94 35 01 	call	0x26a	; 0x26a <lcdPrintData>
    3432:	05 c0       	rjmp	.+10     	; 0x343e <LCD_MENU2+0x118>
    3434:	80 91 86 05 	lds	r24, 0x0586	; 0x800586 <VALUE2>
    3438:	90 e0       	ldi	r25, 0x00	; 0
    343a:	0e 94 37 02 	call	0x46e	; 0x46e <disp_int>
    343e:	64 e0       	ldi	r22, 0x04	; 4
    3440:	82 eb       	ldi	r24, 0xB2	; 178
    3442:	93 e0       	ldi	r25, 0x03	; 3
    3444:	0d c1       	rjmp	.+538    	; 0x3660 <LCD_MENU2+0x33a>
    3446:	86 30       	cpi	r24, 0x06	; 6
    3448:	01 f5       	brne	.+64     	; 0x348a <LCD_MENU2+0x164>
    344a:	8c e9       	ldi	r24, 0x9C	; 156
    344c:	0e 94 9e 00 	call	0x13c	; 0x13c <lcdControlWrite>
    3450:	80 91 88 05 	lds	r24, 0x0588	; 0x800588 <level>
    3454:	88 23       	and	r24, r24
    3456:	69 f0       	breq	.+26     	; 0x3472 <LCD_MENU2+0x14c>
    3458:	81 e0       	ldi	r24, 0x01	; 1
    345a:	80 93 88 05 	sts	0x0588, r24	; 0x800588 <level>
    345e:	80 91 85 05 	lds	r24, 0x0585	; 0x800585 <blink>
    3462:	85 30       	cpi	r24, 0x05	; 5
    3464:	30 f4       	brcc	.+12     	; 0x3472 <LCD_MENU2+0x14c>
    3466:	62 e0       	ldi	r22, 0x02	; 2
    3468:	8a e9       	ldi	r24, 0x9A	; 154
    346a:	93 e0       	ldi	r25, 0x03	; 3
    346c:	0e 94 35 01 	call	0x26a	; 0x26a <lcdPrintData>
    3470:	05 c0       	rjmp	.+10     	; 0x347c <LCD_MENU2+0x156>
    3472:	80 91 86 05 	lds	r24, 0x0586	; 0x800586 <VALUE2>
    3476:	90 e0       	ldi	r25, 0x00	; 0
    3478:	0e 94 37 02 	call	0x46e	; 0x46e <disp_int>
    347c:	8f ed       	ldi	r24, 0xDF	; 223
    347e:	0e 94 bd 00 	call	0x17a	; 0x17a <lcdDataWrite>
    3482:	61 e0       	ldi	r22, 0x01	; 1
    3484:	86 e3       	ldi	r24, 0x36	; 54
    3486:	92 e0       	ldi	r25, 0x02	; 2
    3488:	eb c0       	rjmp	.+470    	; 0x3660 <LCD_MENU2+0x33a>
    348a:	82 30       	cpi	r24, 0x02	; 2
    348c:	c9 f4       	brne	.+50     	; 0x34c0 <LCD_MENU2+0x19a>
    348e:	99 23       	and	r25, r25
    3490:	59 f0       	breq	.+22     	; 0x34a8 <LCD_MENU2+0x182>
    3492:	81 e0       	ldi	r24, 0x01	; 1
    3494:	80 93 88 05 	sts	0x0588, r24	; 0x800588 <level>
    3498:	80 91 85 05 	lds	r24, 0x0585	; 0x800585 <blink>
    349c:	85 30       	cpi	r24, 0x05	; 5
    349e:	20 f4       	brcc	.+8      	; 0x34a8 <LCD_MENU2+0x182>
    34a0:	62 e0       	ldi	r22, 0x02	; 2
    34a2:	8a e9       	ldi	r24, 0x9A	; 154
    34a4:	93 e0       	ldi	r25, 0x03	; 3
    34a6:	45 c0       	rjmp	.+138    	; 0x3532 <LCD_MENU2+0x20c>
    34a8:	80 91 86 05 	lds	r24, 0x0586	; 0x800586 <VALUE2>
    34ac:	90 e0       	ldi	r25, 0x00	; 0
    34ae:	0e 94 37 02 	call	0x46e	; 0x46e <disp_int>
    34b2:	8f ed       	ldi	r24, 0xDF	; 223
    34b4:	0e 94 bd 00 	call	0x17a	; 0x17a <lcdDataWrite>
    34b8:	62 e0       	ldi	r22, 0x02	; 2
    34ba:	8c e2       	ldi	r24, 0x2C	; 44
    34bc:	92 e0       	ldi	r25, 0x02	; 2
    34be:	d0 c0       	rjmp	.+416    	; 0x3660 <LCD_MENU2+0x33a>
    34c0:	87 30       	cpi	r24, 0x07	; 7
    34c2:	11 f0       	breq	.+4      	; 0x34c8 <LCD_MENU2+0x1a2>
    34c4:	8d 30       	cpi	r24, 0x0D	; 13
    34c6:	e9 f4       	brne	.+58     	; 0x3502 <LCD_MENU2+0x1dc>
    34c8:	8c e9       	ldi	r24, 0x9C	; 156
    34ca:	0e 94 9e 00 	call	0x13c	; 0x13c <lcdControlWrite>
    34ce:	80 91 88 05 	lds	r24, 0x0588	; 0x800588 <level>
    34d2:	88 23       	and	r24, r24
    34d4:	79 f0       	breq	.+30     	; 0x34f4 <LCD_MENU2+0x1ce>
    34d6:	81 30       	cpi	r24, 0x01	; 1
    34d8:	49 f4       	brne	.+18     	; 0x34ec <LCD_MENU2+0x1c6>
    34da:	80 91 85 05 	lds	r24, 0x0585	; 0x800585 <blink>
    34de:	85 30       	cpi	r24, 0x05	; 5
    34e0:	48 f4       	brcc	.+18     	; 0x34f4 <LCD_MENU2+0x1ce>
    34e2:	64 e0       	ldi	r22, 0x04	; 4
    34e4:	87 eb       	ldi	r24, 0xB7	; 183
    34e6:	93 e0       	ldi	r25, 0x03	; 3
    34e8:	0e 94 35 01 	call	0x26a	; 0x26a <lcdPrintData>
    34ec:	64 e0       	ldi	r22, 0x04	; 4
    34ee:	8c eb       	ldi	r24, 0xBC	; 188
    34f0:	93 e0       	ldi	r25, 0x03	; 3
    34f2:	b6 c0       	rjmp	.+364    	; 0x3660 <LCD_MENU2+0x33a>
    34f4:	80 91 60 05 	lds	r24, 0x0560	; 0x800560 <VALUE5>
    34f8:	90 91 61 05 	lds	r25, 0x0561	; 0x800561 <VALUE5+0x1>
    34fc:	0e 94 54 02 	call	0x4a8	; 0x4a8 <disp_float2>
    3500:	f5 cf       	rjmp	.-22     	; 0x34ec <LCD_MENU2+0x1c6>
    3502:	28 2f       	mov	r18, r24
    3504:	2d 7f       	andi	r18, 0xFD	; 253
    3506:	21 30       	cpi	r18, 0x01	; 1
    3508:	b9 f4       	brne	.+46     	; 0x3538 <LCD_MENU2+0x212>
    350a:	91 11       	cpse	r25, r1
    350c:	c2 cf       	rjmp	.-124    	; 0x3492 <LCD_MENU2+0x16c>
    350e:	80 91 86 05 	lds	r24, 0x0586	; 0x800586 <VALUE2>
    3512:	4a e0       	ldi	r20, 0x0A	; 10
    3514:	6f ea       	ldi	r22, 0xAF	; 175
    3516:	76 e0       	ldi	r23, 0x06	; 6
    3518:	90 e0       	ldi	r25, 0x00	; 0
    351a:	9a d6       	rcall	.+3380   	; 0x4250 <__itoa_ncheck>
    351c:	ef ea       	ldi	r30, 0xAF	; 175
    351e:	f6 e0       	ldi	r31, 0x06	; 6
    3520:	01 90       	ld	r0, Z+
    3522:	00 20       	and	r0, r0
    3524:	e9 f7       	brne	.-6      	; 0x3520 <LCD_MENU2+0x1fa>
    3526:	31 97       	sbiw	r30, 0x01	; 1
    3528:	bf 01       	movw	r22, r30
    352a:	6f 5a       	subi	r22, 0xAF	; 175
    352c:	76 40       	sbci	r23, 0x06	; 6
    352e:	8f ea       	ldi	r24, 0xAF	; 175
    3530:	96 e0       	ldi	r25, 0x06	; 6
    3532:	0e 94 35 01 	call	0x26a	; 0x26a <lcdPrintData>
    3536:	bd cf       	rjmp	.-134    	; 0x34b2 <LCD_MENU2+0x18c>
    3538:	8c 30       	cpi	r24, 0x0C	; 12
    353a:	c1 f4       	brne	.+48     	; 0x356c <LCD_MENU2+0x246>
    353c:	91 11       	cpse	r25, r1
    353e:	0b c0       	rjmp	.+22     	; 0x3556 <LCD_MENU2+0x230>
    3540:	80 91 86 05 	lds	r24, 0x0586	; 0x800586 <VALUE2>
    3544:	6b e0       	ldi	r22, 0x0B	; 11
    3546:	82 30       	cpi	r24, 0x02	; 2
    3548:	19 f4       	brne	.+6      	; 0x3550 <LCD_MENU2+0x22a>
    354a:	81 ec       	ldi	r24, 0xC1	; 193
    354c:	93 e0       	ldi	r25, 0x03	; 3
    354e:	88 c0       	rjmp	.+272    	; 0x3660 <LCD_MENU2+0x33a>
    3550:	8d ec       	ldi	r24, 0xCD	; 205
    3552:	93 e0       	ldi	r25, 0x03	; 3
    3554:	85 c0       	rjmp	.+266    	; 0x3660 <LCD_MENU2+0x33a>
    3556:	91 30       	cpi	r25, 0x01	; 1
    3558:	09 f0       	breq	.+2      	; 0x355c <LCD_MENU2+0x236>
    355a:	8d c0       	rjmp	.+282    	; 0x3676 <LCD_MENU2+0x350>
    355c:	80 91 85 05 	lds	r24, 0x0585	; 0x800585 <blink>
    3560:	85 30       	cpi	r24, 0x05	; 5
    3562:	70 f7       	brcc	.-36     	; 0x3540 <LCD_MENU2+0x21a>
    3564:	6b e0       	ldi	r22, 0x0B	; 11
    3566:	89 ed       	ldi	r24, 0xD9	; 217
    3568:	93 e0       	ldi	r25, 0x03	; 3
    356a:	7a c0       	rjmp	.+244    	; 0x3660 <LCD_MENU2+0x33a>
    356c:	84 50       	subi	r24, 0x04	; 4
    356e:	82 30       	cpi	r24, 0x02	; 2
    3570:	08 f0       	brcs	.+2      	; 0x3574 <LCD_MENU2+0x24e>
    3572:	78 c0       	rjmp	.+240    	; 0x3664 <LCD_MENU2+0x33e>
    3574:	91 11       	cpse	r25, r1
    3576:	09 c0       	rjmp	.+18     	; 0x358a <LCD_MENU2+0x264>
    3578:	80 91 86 05 	lds	r24, 0x0586	; 0x800586 <VALUE2>
    357c:	90 e0       	ldi	r25, 0x00	; 0
    357e:	0e 94 37 02 	call	0x46e	; 0x46e <disp_int>
    3582:	61 e0       	ldi	r22, 0x01	; 1
    3584:	86 ea       	ldi	r24, 0xA6	; 166
    3586:	92 e0       	ldi	r25, 0x02	; 2
    3588:	11 c0       	rjmp	.+34     	; 0x35ac <LCD_MENU2+0x286>
    358a:	91 30       	cpi	r25, 0x01	; 1
    358c:	09 f0       	breq	.+2      	; 0x3590 <LCD_MENU2+0x26a>
    358e:	6a c0       	rjmp	.+212    	; 0x3664 <LCD_MENU2+0x33e>
    3590:	80 91 7a 05 	lds	r24, 0x057A	; 0x80057a <sub_level2>
    3594:	90 91 7b 05 	lds	r25, 0x057B	; 0x80057b <sub_level2+0x1>
    3598:	81 30       	cpi	r24, 0x01	; 1
    359a:	91 05       	cpc	r25, r1
    359c:	61 f4       	brne	.+24     	; 0x35b6 <LCD_MENU2+0x290>
    359e:	80 91 85 05 	lds	r24, 0x0585	; 0x800585 <blink>
    35a2:	85 30       	cpi	r24, 0x05	; 5
    35a4:	48 f3       	brcs	.-46     	; 0x3578 <LCD_MENU2+0x252>
    35a6:	63 e0       	ldi	r22, 0x03	; 3
    35a8:	84 ea       	ldi	r24, 0xA4	; 164
    35aa:	92 e0       	ldi	r25, 0x02	; 2
    35ac:	0e 94 35 01 	call	0x26a	; 0x26a <lcdPrintData>
    35b0:	80 91 84 05 	lds	r24, 0x0584	; 0x800584 <VALUE3>
    35b4:	13 c0       	rjmp	.+38     	; 0x35dc <LCD_MENU2+0x2b6>
    35b6:	82 30       	cpi	r24, 0x02	; 2
    35b8:	91 05       	cpc	r25, r1
    35ba:	11 f5       	brne	.+68     	; 0x3600 <LCD_MENU2+0x2da>
    35bc:	90 91 85 05 	lds	r25, 0x0585	; 0x800585 <blink>
    35c0:	80 91 40 05 	lds	r24, 0x0540	; 0x800540 <tmpsave1>
    35c4:	95 30       	cpi	r25, 0x05	; 5
    35c6:	88 f4       	brcc	.+34     	; 0x35ea <LCD_MENU2+0x2c4>
    35c8:	90 e0       	ldi	r25, 0x00	; 0
    35ca:	0e 94 37 02 	call	0x46e	; 0x46e <disp_int>
    35ce:	61 e0       	ldi	r22, 0x01	; 1
    35d0:	86 ea       	ldi	r24, 0xA6	; 166
    35d2:	92 e0       	ldi	r25, 0x02	; 2
    35d4:	0e 94 35 01 	call	0x26a	; 0x26a <lcdPrintData>
    35d8:	80 91 86 05 	lds	r24, 0x0586	; 0x800586 <VALUE2>
    35dc:	90 e0       	ldi	r25, 0x00	; 0
    35de:	0e 94 37 02 	call	0x46e	; 0x46e <disp_int>
    35e2:	61 e0       	ldi	r22, 0x01	; 1
    35e4:	86 ea       	ldi	r24, 0xA6	; 166
    35e6:	92 e0       	ldi	r25, 0x02	; 2
    35e8:	06 c0       	rjmp	.+12     	; 0x35f6 <LCD_MENU2+0x2d0>
    35ea:	90 e0       	ldi	r25, 0x00	; 0
    35ec:	0e 94 37 02 	call	0x46e	; 0x46e <disp_int>
    35f0:	64 e0       	ldi	r22, 0x04	; 4
    35f2:	83 ea       	ldi	r24, 0xA3	; 163
    35f4:	92 e0       	ldi	r25, 0x02	; 2
    35f6:	0e 94 35 01 	call	0x26a	; 0x26a <lcdPrintData>
    35fa:	80 91 83 05 	lds	r24, 0x0583	; 0x800583 <VALUE4>
    35fe:	1c c0       	rjmp	.+56     	; 0x3638 <LCD_MENU2+0x312>
    3600:	03 97       	sbiw	r24, 0x03	; 3
    3602:	81 f5       	brne	.+96     	; 0x3664 <LCD_MENU2+0x33e>
    3604:	90 91 85 05 	lds	r25, 0x0585	; 0x800585 <blink>
    3608:	80 91 40 05 	lds	r24, 0x0540	; 0x800540 <tmpsave1>
    360c:	95 30       	cpi	r25, 0x05	; 5
    360e:	c0 f4       	brcc	.+48     	; 0x3640 <LCD_MENU2+0x31a>
    3610:	90 e0       	ldi	r25, 0x00	; 0
    3612:	0e 94 37 02 	call	0x46e	; 0x46e <disp_int>
    3616:	61 e0       	ldi	r22, 0x01	; 1
    3618:	86 ea       	ldi	r24, 0xA6	; 166
    361a:	92 e0       	ldi	r25, 0x02	; 2
    361c:	0e 94 35 01 	call	0x26a	; 0x26a <lcdPrintData>
    3620:	80 91 3f 05 	lds	r24, 0x053F	; 0x80053f <tmpsave2>
    3624:	90 e0       	ldi	r25, 0x00	; 0
    3626:	0e 94 37 02 	call	0x46e	; 0x46e <disp_int>
    362a:	61 e0       	ldi	r22, 0x01	; 1
    362c:	86 ea       	ldi	r24, 0xA6	; 166
    362e:	92 e0       	ldi	r25, 0x02	; 2
    3630:	0e 94 35 01 	call	0x26a	; 0x26a <lcdPrintData>
    3634:	80 91 86 05 	lds	r24, 0x0586	; 0x800586 <VALUE2>
    3638:	90 e0       	ldi	r25, 0x00	; 0
    363a:	0e 94 37 02 	call	0x46e	; 0x46e <disp_int>
    363e:	12 c0       	rjmp	.+36     	; 0x3664 <LCD_MENU2+0x33e>
    3640:	90 e0       	ldi	r25, 0x00	; 0
    3642:	0e 94 37 02 	call	0x46e	; 0x46e <disp_int>
    3646:	61 e0       	ldi	r22, 0x01	; 1
    3648:	86 ea       	ldi	r24, 0xA6	; 166
    364a:	92 e0       	ldi	r25, 0x02	; 2
    364c:	0e 94 35 01 	call	0x26a	; 0x26a <lcdPrintData>
    3650:	80 91 3f 05 	lds	r24, 0x053F	; 0x80053f <tmpsave2>
    3654:	90 e0       	ldi	r25, 0x00	; 0
    3656:	0e 94 37 02 	call	0x46e	; 0x46e <disp_int>
    365a:	63 e0       	ldi	r22, 0x03	; 3
    365c:	88 ea       	ldi	r24, 0xA8	; 168
    365e:	92 e0       	ldi	r25, 0x02	; 2
    3660:	0e 94 35 01 	call	0x26a	; 0x26a <lcdPrintData>
    3664:	80 91 8a 05 	lds	r24, 0x058A	; 0x80058a <SFTM_ITM>
    3668:	9a ef       	ldi	r25, 0xFA	; 250
    366a:	98 0f       	add	r25, r24
    366c:	92 30       	cpi	r25, 0x02	; 2
    366e:	58 f0       	brcs	.+22     	; 0x3686 <LCD_MENU2+0x360>
    3670:	8b 7f       	andi	r24, 0xFB	; 251
    3672:	89 30       	cpi	r24, 0x09	; 9
    3674:	41 f0       	breq	.+16     	; 0x3686 <LCD_MENU2+0x360>
    3676:	84 e9       	ldi	r24, 0x94	; 148
    3678:	0e 94 9e 00 	call	0x13c	; 0x13c <lcdControlWrite>
    367c:	64 e1       	ldi	r22, 0x14	; 20
    367e:	88 e8       	ldi	r24, 0x88	; 136
    3680:	93 e0       	ldi	r25, 0x03	; 3
    3682:	0e 94 35 01 	call	0x26a	; 0x26a <lcdPrintData>
    3686:	84 ed       	ldi	r24, 0xD4	; 212
    3688:	0e 94 9e 00 	call	0x13c	; 0x13c <lcdControlWrite>
    368c:	64 e1       	ldi	r22, 0x14	; 20
    368e:	88 e8       	ldi	r24, 0x88	; 136
    3690:	93 e0       	ldi	r25, 0x03	; 3
    3692:	df 91       	pop	r29
    3694:	cf 91       	pop	r28
    3696:	0c 94 35 01 	jmp	0x26a	; 0x26a <lcdPrintData>

0000369a <updating_menu>:
    369a:	cf 93       	push	r28
    369c:	df 93       	push	r29
    369e:	80 91 7e 05 	lds	r24, 0x057E	; 0x80057e <MAINMENU>
    36a2:	90 91 7f 05 	lds	r25, 0x057F	; 0x80057f <MAINMENU+0x1>
    36a6:	01 97       	sbiw	r24, 0x01	; 1
    36a8:	09 f0       	breq	.+2      	; 0x36ac <updating_menu+0x12>
    36aa:	cd c0       	rjmp	.+410    	; 0x3846 <updating_menu+0x1ac>
    36ac:	0e 94 33 01 	call	0x266	; 0x266 <lcdClear>
    36b0:	80 e8       	ldi	r24, 0x80	; 128
    36b2:	0e 94 9e 00 	call	0x13c	; 0x13c <lcdControlWrite>
    36b6:	64 e1       	ldi	r22, 0x14	; 20
    36b8:	85 ee       	ldi	r24, 0xE5	; 229
    36ba:	93 e0       	ldi	r25, 0x03	; 3
    36bc:	0e 94 35 01 	call	0x26a	; 0x26a <lcdPrintData>
    36c0:	80 91 8a 05 	lds	r24, 0x058A	; 0x80058a <SFTM_ITM>
    36c4:	89 30       	cpi	r24, 0x09	; 9
    36c6:	41 f4       	brne	.+16     	; 0x36d8 <updating_menu+0x3e>
    36c8:	64 e1       	ldi	r22, 0x14	; 20
    36ca:	8a ef       	ldi	r24, 0xFA	; 250
    36cc:	93 e0       	ldi	r25, 0x03	; 3
    36ce:	0e 94 35 01 	call	0x26a	; 0x26a <lcdPrintData>
    36d2:	0e 94 9a 0b 	call	0x1734	; 0x1734 <SHOW_ROLING_EEPROM_EX_DATA>
    36d6:	ab c0       	rjmp	.+342    	; 0x382e <updating_menu+0x194>
    36d8:	31 e0       	ldi	r19, 0x01	; 1
    36da:	2a ef       	ldi	r18, 0xFA	; 250
    36dc:	28 0f       	add	r18, r24
    36de:	23 30       	cpi	r18, 0x03	; 3
    36e0:	08 f0       	brcs	.+2      	; 0x36e4 <updating_menu+0x4a>
    36e2:	30 e0       	ldi	r19, 0x00	; 0
    36e4:	91 e0       	ldi	r25, 0x01	; 1
    36e6:	24 ef       	ldi	r18, 0xF4	; 244
    36e8:	28 0f       	add	r18, r24
    36ea:	22 30       	cpi	r18, 0x02	; 2
    36ec:	08 f0       	brcs	.+2      	; 0x36f0 <updating_menu+0x56>
    36ee:	90 e0       	ldi	r25, 0x00	; 0
    36f0:	93 2b       	or	r25, r19
    36f2:	11 f4       	brne	.+4      	; 0x36f8 <updating_menu+0x5e>
    36f4:	84 30       	cpi	r24, 0x04	; 4
    36f6:	f8 f4       	brcc	.+62     	; 0x3736 <updating_menu+0x9c>
    36f8:	87 30       	cpi	r24, 0x07	; 7
    36fa:	39 f4       	brne	.+14     	; 0x370a <updating_menu+0x70>
    36fc:	60 91 60 05 	lds	r22, 0x0560	; 0x800560 <VALUE5>
    3700:	70 91 61 05 	lds	r23, 0x0561	; 0x800561 <VALUE5+0x1>
    3704:	8c e2       	ldi	r24, 0x2C	; 44
    3706:	91 e0       	ldi	r25, 0x01	; 1
    3708:	08 c0       	rjmp	.+16     	; 0x371a <updating_menu+0x80>
    370a:	8d 30       	cpi	r24, 0x0D	; 13
    370c:	41 f4       	brne	.+16     	; 0x371e <updating_menu+0x84>
    370e:	60 91 60 05 	lds	r22, 0x0560	; 0x800560 <VALUE5>
    3712:	70 91 61 05 	lds	r23, 0x0561	; 0x800561 <VALUE5+0x1>
    3716:	8c ed       	ldi	r24, 0xDC	; 220
    3718:	90 e0       	ldi	r25, 0x00	; 0
    371a:	e7 d5       	rcall	.+3022   	; 0x42ea <eeprom_write_word>
    371c:	5d c0       	rjmp	.+186    	; 0x37d8 <updating_menu+0x13e>
    371e:	90 e0       	ldi	r25, 0x00	; 0
    3720:	01 97       	sbiw	r24, 0x01	; 1
    3722:	fc 01       	movw	r30, r24
    3724:	ee 0f       	add	r30, r30
    3726:	ff 1f       	adc	r31, r31
    3728:	8e 0f       	add	r24, r30
    372a:	9f 1f       	adc	r25, r31
    372c:	fc 01       	movw	r30, r24
    372e:	ee 5d       	subi	r30, 0xDE	; 222
    3730:	f9 4f       	sbci	r31, 0xF9	; 249
    3732:	80 81       	ld	r24, Z
    3734:	4d c0       	rjmp	.+154    	; 0x37d0 <updating_menu+0x136>
    3736:	8a 30       	cpi	r24, 0x0A	; 10
    3738:	71 f4       	brne	.+28     	; 0x3756 <updating_menu+0xbc>
    373a:	40 91 86 05 	lds	r20, 0x0586	; 0x800586 <VALUE2>
    373e:	50 e0       	ldi	r21, 0x00	; 0
    3740:	60 91 3f 05 	lds	r22, 0x053F	; 0x80053f <tmpsave2>
    3744:	70 e0       	ldi	r23, 0x00	; 0
    3746:	80 91 40 05 	lds	r24, 0x0540	; 0x800540 <tmpsave1>
    374a:	90 e0       	ldi	r25, 0x00	; 0
    374c:	0e 94 ed 07 	call	0xfda	; 0xfda <convert_func_Time>
    3750:	0e 94 e8 07 	call	0xfd0	; 0xfd0 <update_time>
    3754:	41 c0       	rjmp	.+130    	; 0x37d8 <updating_menu+0x13e>
    3756:	8b 30       	cpi	r24, 0x0B	; 11
    3758:	71 f4       	brne	.+28     	; 0x3776 <updating_menu+0xdc>
    375a:	40 91 86 05 	lds	r20, 0x0586	; 0x800586 <VALUE2>
    375e:	50 e0       	ldi	r21, 0x00	; 0
    3760:	60 91 3f 05 	lds	r22, 0x053F	; 0x80053f <tmpsave2>
    3764:	70 e0       	ldi	r23, 0x00	; 0
    3766:	80 91 40 05 	lds	r24, 0x0540	; 0x800540 <tmpsave1>
    376a:	90 e0       	ldi	r25, 0x00	; 0
    376c:	0e 94 1b 08 	call	0x1036	; 0x1036 <convert_func_Date>
    3770:	0e 94 16 08 	call	0x102c	; 0x102c <update_Date>
    3774:	31 c0       	rjmp	.+98     	; 0x37d8 <updating_menu+0x13e>
    3776:	90 e0       	ldi	r25, 0x00	; 0
    3778:	01 97       	sbiw	r24, 0x01	; 1
    377a:	fc 01       	movw	r30, r24
    377c:	ee 0f       	add	r30, r30
    377e:	ff 1f       	adc	r31, r31
    3780:	8e 0f       	add	r24, r30
    3782:	9f 1f       	adc	r25, r31
    3784:	fc 01       	movw	r30, r24
    3786:	ee 5d       	subi	r30, 0xDE	; 222
    3788:	f9 4f       	sbci	r31, 0xF9	; 249
    378a:	80 81       	ld	r24, Z
    378c:	60 91 40 05 	lds	r22, 0x0540	; 0x800540 <tmpsave1>
    3790:	90 e0       	ldi	r25, 0x00	; 0
    3792:	9e d5       	rcall	.+2876   	; 0x42d0 <eeprom_write_byte>
    3794:	80 91 8a 05 	lds	r24, 0x058A	; 0x80058a <SFTM_ITM>
    3798:	90 e0       	ldi	r25, 0x00	; 0
    379a:	01 97       	sbiw	r24, 0x01	; 1
    379c:	fc 01       	movw	r30, r24
    379e:	ee 0f       	add	r30, r30
    37a0:	ff 1f       	adc	r31, r31
    37a2:	8e 0f       	add	r24, r30
    37a4:	9f 1f       	adc	r25, r31
    37a6:	fc 01       	movw	r30, r24
    37a8:	ee 5d       	subi	r30, 0xDE	; 222
    37aa:	f9 4f       	sbci	r31, 0xF9	; 249
    37ac:	81 81       	ldd	r24, Z+1	; 0x01
    37ae:	60 91 3f 05 	lds	r22, 0x053F	; 0x80053f <tmpsave2>
    37b2:	90 e0       	ldi	r25, 0x00	; 0
    37b4:	8d d5       	rcall	.+2842   	; 0x42d0 <eeprom_write_byte>
    37b6:	80 91 8a 05 	lds	r24, 0x058A	; 0x80058a <SFTM_ITM>
    37ba:	90 e0       	ldi	r25, 0x00	; 0
    37bc:	01 97       	sbiw	r24, 0x01	; 1
    37be:	fc 01       	movw	r30, r24
    37c0:	ee 0f       	add	r30, r30
    37c2:	ff 1f       	adc	r31, r31
    37c4:	8e 0f       	add	r24, r30
    37c6:	9f 1f       	adc	r25, r31
    37c8:	fc 01       	movw	r30, r24
    37ca:	ee 5d       	subi	r30, 0xDE	; 222
    37cc:	f9 4f       	sbci	r31, 0xF9	; 249
    37ce:	82 81       	ldd	r24, Z+2	; 0x02
    37d0:	60 91 86 05 	lds	r22, 0x0586	; 0x800586 <VALUE2>
    37d4:	90 e0       	ldi	r25, 0x00	; 0
    37d6:	7c d5       	rcall	.+2808   	; 0x42d0 <eeprom_write_byte>
    37d8:	c0 91 8a 05 	lds	r28, 0x058A	; 0x80058a <SFTM_ITM>
    37dc:	c9 30       	cpi	r28, 0x09	; 9
    37de:	10 f0       	brcs	.+4      	; 0x37e4 <updating_menu+0x14a>
    37e0:	cc 30       	cpi	r28, 0x0C	; 12
    37e2:	c9 f4       	brne	.+50     	; 0x3816 <updating_menu+0x17c>
    37e4:	d0 e0       	ldi	r29, 0x00	; 0
    37e6:	21 97       	sbiw	r28, 0x01	; 1
    37e8:	ce 01       	movw	r24, r28
    37ea:	88 0f       	add	r24, r24
    37ec:	99 1f       	adc	r25, r25
    37ee:	c8 0f       	add	r28, r24
    37f0:	d9 1f       	adc	r29, r25
    37f2:	ce 5d       	subi	r28, 0xDE	; 222
    37f4:	d9 4f       	sbci	r29, 0xF9	; 249
    37f6:	88 81       	ld	r24, Y
    37f8:	90 e0       	ldi	r25, 0x00	; 0
    37fa:	5d d5       	rcall	.+2746   	; 0x42b6 <eeprom_read_byte>
    37fc:	80 93 86 05 	sts	0x0586, r24	; 0x800586 <VALUE2>
    3800:	89 81       	ldd	r24, Y+1	; 0x01
    3802:	90 e0       	ldi	r25, 0x00	; 0
    3804:	58 d5       	rcall	.+2736   	; 0x42b6 <eeprom_read_byte>
    3806:	80 93 84 05 	sts	0x0584, r24	; 0x800584 <VALUE3>
    380a:	8a 81       	ldd	r24, Y+2	; 0x02
    380c:	90 e0       	ldi	r25, 0x00	; 0
    380e:	53 d5       	rcall	.+2726   	; 0x42b6 <eeprom_read_byte>
    3810:	80 93 83 05 	sts	0x0583, r24	; 0x800583 <VALUE4>
    3814:	0c c0       	rjmp	.+24     	; 0x382e <updating_menu+0x194>
    3816:	80 91 86 05 	lds	r24, 0x0586	; 0x800586 <VALUE2>
    381a:	80 93 83 05 	sts	0x0583, r24	; 0x800583 <VALUE4>
    381e:	80 91 40 05 	lds	r24, 0x0540	; 0x800540 <tmpsave1>
    3822:	80 93 86 05 	sts	0x0586, r24	; 0x800586 <VALUE2>
    3826:	80 91 3f 05 	lds	r24, 0x053F	; 0x80053f <tmpsave2>
    382a:	80 93 84 05 	sts	0x0584, r24	; 0x800584 <VALUE3>
    382e:	10 92 7b 05 	sts	0x057B, r1	; 0x80057b <sub_level2+0x1>
    3832:	10 92 7a 05 	sts	0x057A, r1	; 0x80057a <sub_level2>
    3836:	82 e0       	ldi	r24, 0x02	; 2
    3838:	80 93 89 05 	sts	0x0589, r24	; 0x800589 <BUTTON>
    383c:	10 92 40 05 	sts	0x0540, r1	; 0x800540 <tmpsave1>
    3840:	10 92 3f 05 	sts	0x053F, r1	; 0x80053f <tmpsave2>
    3844:	08 c0       	rjmp	.+16     	; 0x3856 <updating_menu+0x1bc>
    3846:	80 e8       	ldi	r24, 0x80	; 128
    3848:	0e 94 9e 00 	call	0x13c	; 0x13c <lcdControlWrite>
    384c:	63 e1       	ldi	r22, 0x13	; 19
    384e:	8f e0       	ldi	r24, 0x0F	; 15
    3850:	94 e0       	ldi	r25, 0x04	; 4
    3852:	0e 94 35 01 	call	0x26a	; 0x26a <lcdPrintData>
    3856:	df 91       	pop	r29
    3858:	cf 91       	pop	r28
    385a:	0c 94 33 01 	jmp	0x266	; 0x266 <lcdClear>

0000385e <menu_disp>:
    385e:	cf 93       	push	r28
    3860:	df 93       	push	r29
    3862:	0e 94 33 01 	call	0x266	; 0x266 <lcdClear>
    3866:	81 e0       	ldi	r24, 0x01	; 1
    3868:	80 93 8a 05 	sts	0x058A, r24	; 0x80058a <SFTM_ITM>
    386c:	10 92 77 05 	sts	0x0577, r1	; 0x800577 <POK>
    3870:	c8 e1       	ldi	r28, 0x18	; 24
    3872:	df e0       	ldi	r29, 0x0F	; 15
    3874:	80 91 77 05 	lds	r24, 0x0577	; 0x800577 <POK>
    3878:	81 11       	cpse	r24, r1
    387a:	42 c0       	rjmp	.+132    	; 0x3900 <menu_disp+0xa2>
    387c:	a8 95       	wdr
    387e:	0f b6       	in	r0, 0x3f	; 63
    3880:	f8 94       	cli
    3882:	a8 95       	wdr
    3884:	c1 bd       	out	0x21, r28	; 33
    3886:	0f be       	out	0x3f, r0	; 63
    3888:	d1 bd       	out	0x21, r29	; 33
    388a:	05 da       	rcall	.-3062   	; 0x2c96 <ButtonCheck>
    388c:	80 e8       	ldi	r24, 0x80	; 128
    388e:	0e 94 9e 00 	call	0x13c	; 0x13c <lcdControlWrite>
    3892:	80 91 76 05 	lds	r24, 0x0576	; 0x800576 <PASS>
    3896:	64 e1       	ldi	r22, 0x14	; 20
    3898:	81 11       	cpse	r24, r1
    389a:	03 c0       	rjmp	.+6      	; 0x38a2 <menu_disp+0x44>
    389c:	83 e2       	ldi	r24, 0x23	; 35
    389e:	94 e0       	ldi	r25, 0x04	; 4
    38a0:	02 c0       	rjmp	.+4      	; 0x38a6 <menu_disp+0x48>
    38a2:	89 e3       	ldi	r24, 0x39	; 57
    38a4:	94 e0       	ldi	r25, 0x04	; 4
    38a6:	0e 94 35 01 	call	0x26a	; 0x26a <lcdPrintData>
    38aa:	80 ec       	ldi	r24, 0xC0	; 192
    38ac:	0e 94 9e 00 	call	0x13c	; 0x13c <lcdControlWrite>
    38b0:	6a e0       	ldi	r22, 0x0A	; 10
    38b2:	8f e4       	ldi	r24, 0x4F	; 79
    38b4:	94 e0       	ldi	r25, 0x04	; 4
    38b6:	0e 94 35 01 	call	0x26a	; 0x26a <lcdPrintData>
    38ba:	80 91 76 05 	lds	r24, 0x0576	; 0x800576 <PASS>
    38be:	81 30       	cpi	r24, 0x01	; 1
    38c0:	51 f4       	brne	.+20     	; 0x38d6 <menu_disp+0x78>
    38c2:	80 91 85 05 	lds	r24, 0x0585	; 0x800585 <blink>
    38c6:	85 30       	cpi	r24, 0x05	; 5
    38c8:	30 f4       	brcc	.+12     	; 0x38d6 <menu_disp+0x78>
    38ca:	63 e0       	ldi	r22, 0x03	; 3
    38cc:	89 e9       	ldi	r24, 0x99	; 153
    38ce:	93 e0       	ldi	r25, 0x03	; 3
    38d0:	0e 94 35 01 	call	0x26a	; 0x26a <lcdPrintData>
    38d4:	05 c0       	rjmp	.+10     	; 0x38e0 <menu_disp+0x82>
    38d6:	80 91 04 01 	lds	r24, 0x0104	; 0x800104 <PVALUE>
    38da:	90 e0       	ldi	r25, 0x00	; 0
    38dc:	0e 94 37 02 	call	0x46e	; 0x46e <disp_int>
    38e0:	61 e0       	ldi	r22, 0x01	; 1
    38e2:	8a e5       	ldi	r24, 0x5A	; 90
    38e4:	94 e0       	ldi	r25, 0x04	; 4
    38e6:	0e 94 35 01 	call	0x26a	; 0x26a <lcdPrintData>
    38ea:	80 91 85 05 	lds	r24, 0x0585	; 0x800585 <blink>
    38ee:	8f 5f       	subi	r24, 0xFF	; 255
    38f0:	80 93 85 05 	sts	0x0585, r24	; 0x800585 <blink>
    38f4:	8b 30       	cpi	r24, 0x0B	; 11
    38f6:	08 f4       	brcc	.+2      	; 0x38fa <menu_disp+0x9c>
    38f8:	bd cf       	rjmp	.-134    	; 0x3874 <menu_disp+0x16>
    38fa:	10 92 85 05 	sts	0x0585, r1	; 0x800585 <blink>
    38fe:	ba cf       	rjmp	.-140    	; 0x3874 <menu_disp+0x16>
    3900:	81 30       	cpi	r24, 0x01	; 1
    3902:	69 f4       	brne	.+26     	; 0x391e <menu_disp+0xc0>
    3904:	80 93 89 05 	sts	0x0589, r24	; 0x800589 <BUTTON>
    3908:	10 92 85 05 	sts	0x0585, r1	; 0x800585 <blink>
    390c:	80 91 22 06 	lds	r24, 0x0622	; 0x800622 <aE>
    3910:	90 e0       	ldi	r25, 0x00	; 0
    3912:	d1 d4       	rcall	.+2466   	; 0x42b6 <eeprom_read_byte>
    3914:	80 93 86 05 	sts	0x0586, r24	; 0x800586 <VALUE2>
    3918:	c8 e1       	ldi	r28, 0x18	; 24
    391a:	df e0       	ldi	r29, 0x0F	; 15
    391c:	13 c0       	rjmp	.+38     	; 0x3944 <menu_disp+0xe6>
    391e:	10 92 89 05 	sts	0x0589, r1	; 0x800589 <BUTTON>
    3922:	28 c0       	rjmp	.+80     	; 0x3974 <menu_disp+0x116>
    3924:	a8 95       	wdr
    3926:	0f b6       	in	r0, 0x3f	; 63
    3928:	f8 94       	cli
    392a:	a8 95       	wdr
    392c:	c1 bd       	out	0x21, r28	; 33
    392e:	0f be       	out	0x3f, r0	; 63
    3930:	d1 bd       	out	0x21, r29	; 33
    3932:	b1 d9       	rcall	.-3230   	; 0x2c96 <ButtonCheck>
    3934:	80 91 88 05 	lds	r24, 0x0588	; 0x800588 <level>
    3938:	82 30       	cpi	r24, 0x02	; 2
    393a:	48 f4       	brcc	.+18     	; 0x394e <menu_disp+0xf0>
    393c:	80 91 8a 05 	lds	r24, 0x058A	; 0x80058a <SFTM_ITM>
    3940:	90 e0       	ldi	r25, 0x00	; 0
    3942:	f1 dc       	rcall	.-1566   	; 0x3326 <LCD_MENU2>
    3944:	80 91 89 05 	lds	r24, 0x0589	; 0x800589 <BUTTON>
    3948:	81 11       	cpse	r24, r1
    394a:	ec cf       	rjmp	.-40     	; 0x3924 <menu_disp+0xc6>
    394c:	13 c0       	rjmp	.+38     	; 0x3974 <menu_disp+0x116>
    394e:	82 30       	cpi	r24, 0x02	; 2
    3950:	21 f4       	brne	.+8      	; 0x395a <menu_disp+0xfc>
    3952:	a3 de       	rcall	.-698    	; 0x369a <updating_menu>
    3954:	10 92 88 05 	sts	0x0588, r1	; 0x800588 <level>
    3958:	f5 cf       	rjmp	.-22     	; 0x3944 <menu_disp+0xe6>
    395a:	83 30       	cpi	r24, 0x03	; 3
    395c:	99 f7       	brne	.-26     	; 0x3944 <menu_disp+0xe6>
    395e:	10 92 89 05 	sts	0x0589, r1	; 0x800589 <BUTTON>
    3962:	10 92 8a 05 	sts	0x058A, r1	; 0x80058a <SFTM_ITM>
    3966:	10 92 88 05 	sts	0x0588, r1	; 0x800588 <level>
    396a:	10 92 7f 05 	sts	0x057F, r1	; 0x80057f <MAINMENU+0x1>
    396e:	10 92 7e 05 	sts	0x057E, r1	; 0x80057e <MAINMENU>
    3972:	e8 cf       	rjmp	.-48     	; 0x3944 <menu_disp+0xe6>
    3974:	0e 94 33 01 	call	0x266	; 0x266 <lcdClear>
    3978:	80 e8       	ldi	r24, 0x80	; 128
    397a:	0e 94 9e 00 	call	0x13c	; 0x13c <lcdControlWrite>
    397e:	6e e0       	ldi	r22, 0x0E	; 14
    3980:	8c e5       	ldi	r24, 0x5C	; 92
    3982:	94 e0       	ldi	r25, 0x04	; 4
    3984:	0e 94 35 01 	call	0x26a	; 0x26a <lcdPrintData>
    3988:	0e 94 4a 01 	call	0x294	; 0x294 <disp_delay>
    398c:	a8 95       	wdr
    398e:	9f e0       	ldi	r25, 0x0F	; 15
    3990:	88 e1       	ldi	r24, 0x18	; 24
    3992:	0f b6       	in	r0, 0x3f	; 63
    3994:	f8 94       	cli
    3996:	a8 95       	wdr
    3998:	81 bd       	out	0x21, r24	; 33
    399a:	0f be       	out	0x3f, r0	; 63
    399c:	91 bd       	out	0x21, r25	; 33
    399e:	10 92 8a 05 	sts	0x058A, r1	; 0x80058a <SFTM_ITM>
    39a2:	10 92 89 05 	sts	0x0589, r1	; 0x800589 <BUTTON>
    39a6:	10 92 77 05 	sts	0x0577, r1	; 0x800577 <POK>
    39aa:	10 92 76 05 	sts	0x0576, r1	; 0x800576 <PASS>
    39ae:	82 e8       	ldi	r24, 0x82	; 130
    39b0:	80 93 04 01 	sts	0x0104, r24	; 0x800104 <PVALUE>
    39b4:	0e 94 33 01 	call	0x266	; 0x266 <lcdClear>
    39b8:	df 91       	pop	r29
    39ba:	cf 91       	pop	r28
    39bc:	0c 94 8c 0f 	jmp	0x1f18	; 0x1f18 <take_all_setting>

000039c0 <fire_alarm_check>:
    39c0:	04 9b       	sbis	0x00, 4	; 0
    39c2:	11 c0       	rjmp	.+34     	; 0x39e6 <fire_alarm_check+0x26>
    39c4:	80 91 2d 05 	lds	r24, 0x052D	; 0x80052d <humcntr1>
    39c8:	8f 5f       	subi	r24, 0xFF	; 255
    39ca:	80 93 2d 05 	sts	0x052D, r24	; 0x80052d <humcntr1>
    39ce:	85 36       	cpi	r24, 0x65	; 101
    39d0:	c8 f0       	brcs	.+50     	; 0x3a04 <fire_alarm_check+0x44>
    39d2:	81 e0       	ldi	r24, 0x01	; 1
    39d4:	80 93 94 05 	sts	0x0594, r24	; 0x800594 <FIRE_ALARM>
    39d8:	10 92 2c 05 	sts	0x052C, r1	; 0x80052c <humcntr2>
    39dc:	88 e7       	ldi	r24, 0x78	; 120
    39de:	80 93 2d 05 	sts	0x052D, r24	; 0x80052d <humcntr1>
    39e2:	c2 9a       	sbi	0x18, 2	; 24
    39e4:	08 95       	ret
    39e6:	80 91 2c 05 	lds	r24, 0x052C	; 0x80052c <humcntr2>
    39ea:	8f 5f       	subi	r24, 0xFF	; 255
    39ec:	80 93 2c 05 	sts	0x052C, r24	; 0x80052c <humcntr2>
    39f0:	85 36       	cpi	r24, 0x65	; 101
    39f2:	40 f0       	brcs	.+16     	; 0x3a04 <fire_alarm_check+0x44>
    39f4:	10 92 94 05 	sts	0x0594, r1	; 0x800594 <FIRE_ALARM>
    39f8:	10 92 2d 05 	sts	0x052D, r1	; 0x80052d <humcntr1>
    39fc:	88 e7       	ldi	r24, 0x78	; 120
    39fe:	80 93 2c 05 	sts	0x052C, r24	; 0x80052c <humcntr2>
    3a02:	c2 98       	cbi	0x18, 2	; 24
    3a04:	08 95       	ret

00003a06 <secondary_display>:
    3a06:	0e 94 50 07 	call	0xea0	; 0xea0 <DATE_TIME_Conversion>
    3a0a:	80 e8       	ldi	r24, 0x80	; 128
    3a0c:	0e 94 9e 00 	call	0x13c	; 0x13c <lcdControlWrite>
    3a10:	65 e0       	ldi	r22, 0x05	; 5
    3a12:	8b e6       	ldi	r24, 0x6B	; 107
    3a14:	94 e0       	ldi	r25, 0x04	; 4
    3a16:	0e 94 35 01 	call	0x26a	; 0x26a <lcdPrintData>
    3a1a:	80 91 0b 05 	lds	r24, 0x050B	; 0x80050b <DATEin>
    3a1e:	90 e0       	ldi	r25, 0x00	; 0
    3a20:	0e 94 37 02 	call	0x46e	; 0x46e <disp_int>
    3a24:	61 e0       	ldi	r22, 0x01	; 1
    3a26:	84 e9       	ldi	r24, 0x94	; 148
    3a28:	92 e0       	ldi	r25, 0x02	; 2
    3a2a:	0e 94 35 01 	call	0x26a	; 0x26a <lcdPrintData>
    3a2e:	80 91 0c 05 	lds	r24, 0x050C	; 0x80050c <MONTHin>
    3a32:	90 e0       	ldi	r25, 0x00	; 0
    3a34:	0e 94 37 02 	call	0x46e	; 0x46e <disp_int>
    3a38:	63 e0       	ldi	r22, 0x03	; 3
    3a3a:	89 e9       	ldi	r24, 0x99	; 153
    3a3c:	92 e0       	ldi	r25, 0x02	; 2
    3a3e:	0e 94 35 01 	call	0x26a	; 0x26a <lcdPrintData>
    3a42:	80 91 0a 05 	lds	r24, 0x050A	; 0x80050a <YEARin>
    3a46:	90 e0       	ldi	r25, 0x00	; 0
    3a48:	0e 94 37 02 	call	0x46e	; 0x46e <disp_int>
    3a4c:	65 e0       	ldi	r22, 0x05	; 5
    3a4e:	87 e9       	ldi	r24, 0x97	; 151
    3a50:	93 e0       	ldi	r25, 0x03	; 3
    3a52:	0e 94 35 01 	call	0x26a	; 0x26a <lcdPrintData>
    3a56:	80 ec       	ldi	r24, 0xC0	; 192
    3a58:	0e 94 9e 00 	call	0x13c	; 0x13c <lcdControlWrite>
    3a5c:	65 e0       	ldi	r22, 0x05	; 5
    3a5e:	8b ef       	ldi	r24, 0xFB	; 251
    3a60:	92 e0       	ldi	r25, 0x02	; 2
    3a62:	0e 94 35 01 	call	0x26a	; 0x26a <lcdPrintData>
    3a66:	80 91 0d 05 	lds	r24, 0x050D	; 0x80050d <HOURin>
    3a6a:	90 e0       	ldi	r25, 0x00	; 0
    3a6c:	0e 94 37 02 	call	0x46e	; 0x46e <disp_int>
    3a70:	61 e0       	ldi	r22, 0x01	; 1
    3a72:	86 ea       	ldi	r24, 0xA6	; 166
    3a74:	92 e0       	ldi	r25, 0x02	; 2
    3a76:	0e 94 35 01 	call	0x26a	; 0x26a <lcdPrintData>
    3a7a:	80 91 0e 05 	lds	r24, 0x050E	; 0x80050e <MINin>
    3a7e:	90 e0       	ldi	r25, 0x00	; 0
    3a80:	0e 94 37 02 	call	0x46e	; 0x46e <disp_int>
    3a84:	61 e0       	ldi	r22, 0x01	; 1
    3a86:	86 ea       	ldi	r24, 0xA6	; 166
    3a88:	92 e0       	ldi	r25, 0x02	; 2
    3a8a:	0e 94 35 01 	call	0x26a	; 0x26a <lcdPrintData>
    3a8e:	80 91 0f 05 	lds	r24, 0x050F	; 0x80050f <SECin>
    3a92:	90 e0       	ldi	r25, 0x00	; 0
    3a94:	0e 94 37 02 	call	0x46e	; 0x46e <disp_int>
    3a98:	67 e0       	ldi	r22, 0x07	; 7
    3a9a:	85 e9       	ldi	r24, 0x95	; 149
    3a9c:	93 e0       	ldi	r25, 0x03	; 3
    3a9e:	0e 94 35 01 	call	0x26a	; 0x26a <lcdPrintData>
    3aa2:	84 e9       	ldi	r24, 0x94	; 148
    3aa4:	0e 94 9e 00 	call	0x13c	; 0x13c <lcdControlWrite>
    3aa8:	6e e0       	ldi	r22, 0x0E	; 14
    3aaa:	81 e7       	ldi	r24, 0x71	; 113
    3aac:	94 e0       	ldi	r25, 0x04	; 4
    3aae:	0e 94 35 01 	call	0x26a	; 0x26a <lcdPrintData>
    3ab2:	80 91 14 05 	lds	r24, 0x0514	; 0x800514 <INTERV>
    3ab6:	90 e0       	ldi	r25, 0x00	; 0
    3ab8:	0e 94 37 02 	call	0x46e	; 0x46e <disp_int>
    3abc:	64 e0       	ldi	r22, 0x04	; 4
    3abe:	82 eb       	ldi	r24, 0xB2	; 178
    3ac0:	93 e0       	ldi	r25, 0x03	; 3
    3ac2:	0e 94 35 01 	call	0x26a	; 0x26a <lcdPrintData>
    3ac6:	84 ed       	ldi	r24, 0xD4	; 212
    3ac8:	0e 94 9e 00 	call	0x13c	; 0x13c <lcdControlWrite>
    3acc:	6b e0       	ldi	r22, 0x0B	; 11
    3ace:	80 e8       	ldi	r24, 0x80	; 128
    3ad0:	94 e0       	ldi	r25, 0x04	; 4
    3ad2:	0e 94 35 01 	call	0x26a	; 0x26a <lcdPrintData>
    3ad6:	80 91 12 05 	lds	r24, 0x0512	; 0x800512 <SAVED_DATA>
    3ada:	90 91 13 05 	lds	r25, 0x0513	; 0x800513 <SAVED_DATA+0x1>
    3ade:	85 36       	cpi	r24, 0x65	; 101
    3ae0:	91 05       	cpc	r25, r1
    3ae2:	20 f0       	brcs	.+8      	; 0x3aec <secondary_display+0xe6>
    3ae4:	61 e0       	ldi	r22, 0x01	; 1
    3ae6:	86 e5       	ldi	r24, 0x56	; 86
    3ae8:	91 e0       	ldi	r25, 0x01	; 1
    3aea:	03 c0       	rjmp	.+6      	; 0x3af2 <secondary_display+0xec>
    3aec:	62 e0       	ldi	r22, 0x02	; 2
    3aee:	85 e5       	ldi	r24, 0x55	; 85
    3af0:	91 e0       	ldi	r25, 0x01	; 1
    3af2:	0e 94 35 01 	call	0x26a	; 0x26a <lcdPrintData>
    3af6:	80 91 12 05 	lds	r24, 0x0512	; 0x800512 <SAVED_DATA>
    3afa:	90 91 13 05 	lds	r25, 0x0513	; 0x800513 <SAVED_DATA+0x1>
    3afe:	0e 94 37 02 	call	0x46e	; 0x46e <disp_int>
    3b02:	61 e0       	ldi	r22, 0x01	; 1
    3b04:	8b e9       	ldi	r24, 0x9B	; 155
    3b06:	93 e0       	ldi	r25, 0x03	; 3
    3b08:	0e 94 35 01 	call	0x26a	; 0x26a <lcdPrintData>
    3b0c:	88 e9       	ldi	r24, 0x98	; 152
    3b0e:	90 e0       	ldi	r25, 0x00	; 0
    3b10:	d2 d3       	rcall	.+1956   	; 0x42b6 <eeprom_read_byte>
    3b12:	64 e0       	ldi	r22, 0x04	; 4
    3b14:	81 30       	cpi	r24, 0x01	; 1
    3b16:	19 f4       	brne	.+6      	; 0x3b1e <secondary_display+0x118>
    3b18:	8c e8       	ldi	r24, 0x8C	; 140
    3b1a:	94 e0       	ldi	r25, 0x04	; 4
    3b1c:	02 c0       	rjmp	.+4      	; 0x3b22 <secondary_display+0x11c>
    3b1e:	88 e9       	ldi	r24, 0x98	; 152
    3b20:	93 e0       	ldi	r25, 0x03	; 3
    3b22:	0c 94 35 01 	jmp	0x26a	; 0x26a <lcdPrintData>

00003b26 <fire_display>:
    3b26:	80 e8       	ldi	r24, 0x80	; 128
    3b28:	0e 94 9e 00 	call	0x13c	; 0x13c <lcdControlWrite>
    3b2c:	64 e1       	ldi	r22, 0x14	; 20
    3b2e:	88 e8       	ldi	r24, 0x88	; 136
    3b30:	93 e0       	ldi	r25, 0x03	; 3
    3b32:	0e 94 35 01 	call	0x26a	; 0x26a <lcdPrintData>
    3b36:	80 ec       	ldi	r24, 0xC0	; 192
    3b38:	0e 94 9e 00 	call	0x13c	; 0x13c <lcdControlWrite>
    3b3c:	64 e1       	ldi	r22, 0x14	; 20
    3b3e:	81 e9       	ldi	r24, 0x91	; 145
    3b40:	94 e0       	ldi	r25, 0x04	; 4
    3b42:	0e 94 35 01 	call	0x26a	; 0x26a <lcdPrintData>
    3b46:	84 e9       	ldi	r24, 0x94	; 148
    3b48:	0e 94 9e 00 	call	0x13c	; 0x13c <lcdControlWrite>
    3b4c:	64 e1       	ldi	r22, 0x14	; 20
    3b4e:	86 ea       	ldi	r24, 0xA6	; 166
    3b50:	94 e0       	ldi	r25, 0x04	; 4
    3b52:	0e 94 35 01 	call	0x26a	; 0x26a <lcdPrintData>
    3b56:	84 ed       	ldi	r24, 0xD4	; 212
    3b58:	0e 94 9e 00 	call	0x13c	; 0x13c <lcdControlWrite>
    3b5c:	64 e1       	ldi	r22, 0x14	; 20
    3b5e:	88 e8       	ldi	r24, 0x88	; 136
    3b60:	93 e0       	ldi	r25, 0x03	; 3
    3b62:	0c 94 35 01 	jmp	0x26a	; 0x26a <lcdPrintData>

00003b66 <high_temp_alarm>:
    3b66:	80 91 1e 05 	lds	r24, 0x051E	; 0x80051e <TEX>
    3b6a:	90 e0       	ldi	r25, 0x00	; 0
    3b6c:	20 91 8d 05 	lds	r18, 0x058D	; 0x80058d <TROOM>
    3b70:	30 91 8e 05 	lds	r19, 0x058E	; 0x80058e <TROOM+0x1>
    3b74:	82 17       	cp	r24, r18
    3b76:	93 07       	cpc	r25, r19
    3b78:	90 f4       	brcc	.+36     	; 0x3b9e <high_temp_alarm+0x38>
    3b7a:	80 91 91 05 	lds	r24, 0x0591	; 0x800591 <extcntr1>
    3b7e:	8f 5f       	subi	r24, 0xFF	; 255
    3b80:	85 36       	cpi	r24, 0x65	; 101
    3b82:	18 f4       	brcc	.+6      	; 0x3b8a <high_temp_alarm+0x24>
    3b84:	80 93 91 05 	sts	0x0591, r24	; 0x800591 <extcntr1>
    3b88:	08 95       	ret
    3b8a:	88 e7       	ldi	r24, 0x78	; 120
    3b8c:	80 93 91 05 	sts	0x0591, r24	; 0x800591 <extcntr1>
    3b90:	10 92 90 05 	sts	0x0590, r1	; 0x800590 <extcntr2>
    3b94:	81 e0       	ldi	r24, 0x01	; 1
    3b96:	80 93 6c 05 	sts	0x056C, r24	; 0x80056c <EXTR_HIGH>
    3b9a:	c0 9a       	sbi	0x18, 0	; 24
    3b9c:	08 95       	ret
    3b9e:	80 91 90 05 	lds	r24, 0x0590	; 0x800590 <extcntr2>
    3ba2:	8f 5f       	subi	r24, 0xFF	; 255
    3ba4:	85 36       	cpi	r24, 0x65	; 101
    3ba6:	18 f4       	brcc	.+6      	; 0x3bae <high_temp_alarm+0x48>
    3ba8:	80 93 90 05 	sts	0x0590, r24	; 0x800590 <extcntr2>
    3bac:	08 95       	ret
    3bae:	88 e7       	ldi	r24, 0x78	; 120
    3bb0:	80 93 90 05 	sts	0x0590, r24	; 0x800590 <extcntr2>
    3bb4:	10 92 91 05 	sts	0x0591, r1	; 0x800591 <extcntr1>
    3bb8:	10 92 6c 05 	sts	0x056C, r1	; 0x80056c <EXTR_HIGH>
    3bbc:	c0 98       	cbi	0x18, 0	; 24
    3bbe:	08 95       	ret

00003bc0 <main>:
    3bc0:	0e 94 ce 0e 	call	0x1d9c	; 0x1d9c <init_devices>
    3bc4:	0e 94 3b 03 	call	0x676	; 0x676 <search_sensors>
    3bc8:	0e 94 76 04 	call	0x8ec	; 0x8ec <search_sensors2>
    3bcc:	80 e8       	ldi	r24, 0x80	; 128
    3bce:	0e 94 9e 00 	call	0x13c	; 0x13c <lcdControlWrite>
    3bd2:	64 e1       	ldi	r22, 0x14	; 20
    3bd4:	8b eb       	ldi	r24, 0xBB	; 187
    3bd6:	94 e0       	ldi	r25, 0x04	; 4
    3bd8:	0e 94 35 01 	call	0x26a	; 0x26a <lcdPrintData>
    3bdc:	0e 94 3a 0e 	call	0x1c74	; 0x1c74 <ButtonCheck_Secondary>
    3be0:	db 9a       	sbi	0x1b, 3	; 27
    3be2:	2f ef       	ldi	r18, 0xFF	; 255
    3be4:	80 e7       	ldi	r24, 0x70	; 112
    3be6:	92 e0       	ldi	r25, 0x02	; 2
    3be8:	21 50       	subi	r18, 0x01	; 1
    3bea:	80 40       	sbci	r24, 0x00	; 0
    3bec:	90 40       	sbci	r25, 0x00	; 0
    3bee:	e1 f7       	brne	.-8      	; 0x3be8 <main+0x28>
    3bf0:	00 c0       	rjmp	.+0      	; 0x3bf2 <main+0x32>
    3bf2:	00 00       	nop
    3bf4:	db 98       	cbi	0x1b, 3	; 27
    3bf6:	a8 95       	wdr
    3bf8:	9f e0       	ldi	r25, 0x0F	; 15
    3bfa:	88 e1       	ldi	r24, 0x18	; 24
    3bfc:	0f b6       	in	r0, 0x3f	; 63
    3bfe:	f8 94       	cli
    3c00:	a8 95       	wdr
    3c02:	81 bd       	out	0x21, r24	; 33
    3c04:	0f be       	out	0x3f, r0	; 63
    3c06:	91 bd       	out	0x21, r25	; 33
    3c08:	c2 e3       	ldi	r28, 0x32	; 50
    3c0a:	d8 e1       	ldi	r29, 0x18	; 24
    3c0c:	1f e0       	ldi	r17, 0x0F	; 15
    3c0e:	36 9a       	sbi	0x06, 6	; 6
    3c10:	0e 94 9c 01 	call	0x338	; 0x338 <start_convar>
    3c14:	8f e1       	ldi	r24, 0x1F	; 31
    3c16:	9e e4       	ldi	r25, 0x4E	; 78
    3c18:	01 97       	sbiw	r24, 0x01	; 1
    3c1a:	f1 f7       	brne	.-4      	; 0x3c18 <main+0x58>
    3c1c:	00 c0       	rjmp	.+0      	; 0x3c1e <main+0x5e>
    3c1e:	00 00       	nop
    3c20:	36 9a       	sbi	0x06, 6	; 6
    3c22:	0e 94 00 02 	call	0x400	; 0x400 <start_convar2>
    3c26:	8f e1       	ldi	r24, 0x1F	; 31
    3c28:	9e e4       	ldi	r25, 0x4E	; 78
    3c2a:	01 97       	sbiw	r24, 0x01	; 1
    3c2c:	f1 f7       	brne	.-4      	; 0x3c2a <main+0x6a>
    3c2e:	00 c0       	rjmp	.+0      	; 0x3c30 <main+0x70>
    3c30:	00 00       	nop
    3c32:	0e 94 7a 03 	call	0x6f4	; 0x6f4 <DS18X20_start_meas>
    3c36:	0e 94 84 03 	call	0x708	; 0x708 <DS18X20_read_meas_single>
    3c3a:	0e 94 b5 04 	call	0x96a	; 0x96a <DS18X20_start_meas2>
    3c3e:	0e 94 bf 04 	call	0x97e	; 0x97e <DS18X20_read_meas_single2>
    3c42:	a8 95       	wdr
    3c44:	0f b6       	in	r0, 0x3f	; 63
    3c46:	f8 94       	cli
    3c48:	a8 95       	wdr
    3c4a:	d1 bd       	out	0x21, r29	; 33
    3c4c:	0f be       	out	0x3f, r0	; 63
    3c4e:	11 bd       	out	0x21, r17	; 33
    3c50:	c1 50       	subi	r28, 0x01	; 1
    3c52:	e9 f6       	brne	.-70     	; 0x3c0e <main+0x4e>
    3c54:	9f ef       	ldi	r25, 0xFF	; 255
    3c56:	26 e1       	ldi	r18, 0x16	; 22
    3c58:	81 e1       	ldi	r24, 0x11	; 17
    3c5a:	91 50       	subi	r25, 0x01	; 1
    3c5c:	20 40       	sbci	r18, 0x00	; 0
    3c5e:	80 40       	sbci	r24, 0x00	; 0
    3c60:	e1 f7       	brne	.-8      	; 0x3c5a <main+0x9a>
    3c62:	00 c0       	rjmp	.+0      	; 0x3c64 <main+0xa4>
    3c64:	00 00       	nop
    3c66:	80 91 5e 06 	lds	r24, 0x065E	; 0x80065e <aE+0x3c>
    3c6a:	90 e0       	ldi	r25, 0x00	; 0
    3c6c:	2c d3       	rcall	.+1624   	; 0x42c6 <eeprom_read_word>
    3c6e:	01 97       	sbiw	r24, 0x01	; 1
    3c70:	21 f1       	breq	.+72     	; 0x3cba <main+0xfa>
    3c72:	0e 94 aa 10 	call	0x2154	; 0x2154 <init_internaleeprom>
    3c76:	80 91 5e 06 	lds	r24, 0x065E	; 0x80065e <aE+0x3c>
    3c7a:	61 e0       	ldi	r22, 0x01	; 1
    3c7c:	70 e0       	ldi	r23, 0x00	; 0
    3c7e:	90 e0       	ldi	r25, 0x00	; 0
    3c80:	34 d3       	rcall	.+1640   	; 0x42ea <eeprom_write_word>
    3c82:	42 e3       	ldi	r20, 0x32	; 50
    3c84:	50 e0       	ldi	r21, 0x00	; 0
    3c86:	6d e2       	ldi	r22, 0x2D	; 45
    3c88:	70 e0       	ldi	r23, 0x00	; 0
    3c8a:	8d e0       	ldi	r24, 0x0D	; 13
    3c8c:	90 e0       	ldi	r25, 0x00	; 0
    3c8e:	0e 94 ed 07 	call	0xfda	; 0xfda <convert_func_Time>
    3c92:	0e 94 e8 07 	call	0xfd0	; 0xfd0 <update_time>
    3c96:	44 e1       	ldi	r20, 0x14	; 20
    3c98:	50 e0       	ldi	r21, 0x00	; 0
    3c9a:	63 e0       	ldi	r22, 0x03	; 3
    3c9c:	70 e0       	ldi	r23, 0x00	; 0
    3c9e:	8f e0       	ldi	r24, 0x0F	; 15
    3ca0:	90 e0       	ldi	r25, 0x00	; 0
    3ca2:	0e 94 1b 08 	call	0x1036	; 0x1036 <convert_func_Date>
    3ca6:	0e 94 16 08 	call	0x102c	; 0x102c <update_Date>
    3caa:	80 e0       	ldi	r24, 0x00	; 0
    3cac:	90 e0       	ldi	r25, 0x00	; 0
    3cae:	0e 94 72 09 	call	0x12e4	; 0x12e4 <save_record_no>
    3cb2:	80 e0       	ldi	r24, 0x00	; 0
    3cb4:	90 e0       	ldi	r25, 0x00	; 0
    3cb6:	0e 94 7f 09 	call	0x12fe	; 0x12fe <save_record_no_full>
    3cba:	0e 94 8c 0f 	call	0x1f18	; 0x1f18 <take_all_setting>
    3cbe:	0e 94 33 01 	call	0x266	; 0x266 <lcdClear>
    3cc2:	80 ed       	ldi	r24, 0xD0	; 208
    3cc4:	94 e0       	ldi	r25, 0x04	; 4
    3cc6:	0e 94 4c 08 	call	0x1098	; 0x1098 <USART_TransmitString>
    3cca:	8f ee       	ldi	r24, 0xEF	; 239
    3ccc:	94 e0       	ldi	r25, 0x04	; 4
    3cce:	0e 94 4c 08 	call	0x1098	; 0x1098 <USART_TransmitString>
    3cd2:	83 e0       	ldi	r24, 0x03	; 3
    3cd4:	90 e0       	ldi	r25, 0x00	; 0
    3cd6:	90 93 71 05 	sts	0x0571, r25	; 0x800571 <HuT+0x1>
    3cda:	80 93 70 05 	sts	0x0570, r24	; 0x800570 <HuT>
    3cde:	8b b3       	in	r24, 0x1b	; 27
    3ce0:	8b bb       	out	0x1b, r24	; 27
    3ce2:	84 ed       	ldi	r24, 0xD4	; 212
    3ce4:	0e 94 9e 00 	call	0x13c	; 0x13c <lcdControlWrite>
    3ce8:	80 91 9b 05 	lds	r24, 0x059B	; 0x80059b <BUZZER2>
    3cec:	90 91 9c 05 	lds	r25, 0x059C	; 0x80059c <BUZZER2+0x1>
    3cf0:	0e 94 37 02 	call	0x46e	; 0x46e <disp_int>
    3cf4:	80 91 9d 05 	lds	r24, 0x059D	; 0x80059d <BUZZERCNTR>
    3cf8:	90 91 9e 05 	lds	r25, 0x059E	; 0x80059e <BUZZERCNTR+0x1>
    3cfc:	0e 94 37 02 	call	0x46e	; 0x46e <disp_int>
    3d00:	80 91 93 05 	lds	r24, 0x0593	; 0x800593 <fjamcntr1>
    3d04:	90 e0       	ldi	r25, 0x00	; 0
    3d06:	0e 94 37 02 	call	0x46e	; 0x46e <disp_int>
    3d0a:	80 91 92 05 	lds	r24, 0x0592	; 0x800592 <fjamcntr2>
    3d0e:	90 e0       	ldi	r25, 0x00	; 0
    3d10:	0e 94 37 02 	call	0x46e	; 0x46e <disp_int>
    3d14:	c8 e1       	ldi	r28, 0x18	; 24
    3d16:	df e0       	ldi	r29, 0x0F	; 15
    3d18:	03 e6       	ldi	r16, 0x63	; 99
    3d1a:	10 e0       	ldi	r17, 0x00	; 0
    3d1c:	a8 95       	wdr
    3d1e:	0f b6       	in	r0, 0x3f	; 63
    3d20:	f8 94       	cli
    3d22:	a8 95       	wdr
    3d24:	c1 bd       	out	0x21, r28	; 33
    3d26:	0f be       	out	0x3f, r0	; 63
    3d28:	d1 bd       	out	0x21, r29	; 33
    3d2a:	0e 94 9d 0a 	call	0x153a	; 0x153a <Save_EEPROM>
    3d2e:	60 91 28 05 	lds	r22, 0x0528	; 0x800528 <Speed1>
    3d32:	70 91 29 05 	lds	r23, 0x0529	; 0x800529 <Speed1+0x1>
    3d36:	80 e0       	ldi	r24, 0x00	; 0
    3d38:	90 e0       	ldi	r25, 0x00	; 0
    3d3a:	45 d1       	rcall	.+650    	; 0x3fc6 <__floatunsisf>
    3d3c:	27 ef       	ldi	r18, 0xF7	; 247
    3d3e:	3e ed       	ldi	r19, 0xDE	; 222
    3d40:	43 ea       	ldi	r20, 0xA3	; 163
    3d42:	51 e4       	ldi	r21, 0x41	; 65
    3d44:	f2 d1       	rcall	.+996    	; 0x412a <__mulsf3>
    3d46:	13 d1       	rcall	.+550    	; 0x3f6e <__fixunssfsi>
    3d48:	70 93 5d 05 	sts	0x055D, r23	; 0x80055d <RPM+0x1>
    3d4c:	60 93 5c 05 	sts	0x055C, r22	; 0x80055c <RPM>
    3d50:	0e 94 ee 0f 	call	0x1fdc	; 0x1fdc <chk_format>
    3d54:	0e 94 86 14 	call	0x290c	; 0x290c <take_all_input>
    3d58:	80 91 8d 05 	lds	r24, 0x058D	; 0x80058d <TROOM>
    3d5c:	90 91 8e 05 	lds	r25, 0x058E	; 0x80058e <TROOM+0x1>
    3d60:	05 97       	sbiw	r24, 0x05	; 5
    3d62:	20 f4       	brcc	.+8      	; 0x3d6c <main+0x1ac>
    3d64:	10 93 8e 05 	sts	0x058E, r17	; 0x80058e <TROOM+0x1>
    3d68:	00 93 8d 05 	sts	0x058D, r16	; 0x80058d <TROOM>
    3d6c:	80 91 8b 05 	lds	r24, 0x058B	; 0x80058b <TOUT>
    3d70:	90 91 8c 05 	lds	r25, 0x058C	; 0x80058c <TOUT+0x1>
    3d74:	05 97       	sbiw	r24, 0x05	; 5
    3d76:	20 f4       	brcc	.+8      	; 0x3d80 <main+0x1c0>
    3d78:	10 92 8c 05 	sts	0x058C, r1	; 0x80058c <TOUT+0x1>
    3d7c:	10 92 8b 05 	sts	0x058B, r1	; 0x80058b <TOUT>
    3d80:	1f de       	rcall	.-962    	; 0x39c0 <fire_alarm_check>
    3d82:	80 91 94 05 	lds	r24, 0x0594	; 0x800594 <FIRE_ALARM>
    3d86:	81 11       	cpse	r24, r1
    3d88:	09 c0       	rjmp	.+18     	; 0x3d9c <main+0x1dc>
    3d8a:	80 91 15 05 	lds	r24, 0x0515	; 0x800515 <SEC_DISP>
    3d8e:	81 11       	cpse	r24, r1
    3d90:	03 c0       	rjmp	.+6      	; 0x3d98 <main+0x1d8>
    3d92:	0e 94 2d 14 	call	0x285a	; 0x285a <display_Main_auto>
    3d96:	05 c0       	rjmp	.+10     	; 0x3da2 <main+0x1e2>
    3d98:	36 de       	rcall	.-916    	; 0x3a06 <secondary_display>
    3d9a:	03 c0       	rjmp	.+6      	; 0x3da2 <main+0x1e2>
    3d9c:	c4 de       	rcall	.-632    	; 0x3b26 <fire_display>
    3d9e:	0e 94 25 12 	call	0x244a	; 0x244a <fan_off_all>
    3da2:	0e 94 2c 13 	call	0x2658	; 0x2658 <IVS_Robi_PARAM_Auto>
    3da6:	0e 94 b6 14 	call	0x296c	; 0x296c <low_voltage_check>
    3daa:	0e 94 4b 16 	call	0x2c96	; 0x2c96 <ButtonCheck>
    3dae:	db de       	rcall	.-586    	; 0x3b66 <high_temp_alarm>
    3db0:	0e 94 f8 10 	call	0x21f0	; 0x21f0 <common_alarm>
    3db4:	80 91 89 05 	lds	r24, 0x0589	; 0x800589 <BUTTON>
    3db8:	88 23       	and	r24, r24
    3dba:	09 f4       	brne	.+2      	; 0x3dbe <main+0x1fe>
    3dbc:	af cf       	rjmp	.-162    	; 0x3d1c <main+0x15c>
    3dbe:	4f dd       	rcall	.-1378   	; 0x385e <menu_disp>
    3dc0:	ad cf       	rjmp	.-166    	; 0x3d1c <main+0x15c>

00003dc2 <__subsf3>:
    3dc2:	50 58       	subi	r21, 0x80	; 128

00003dc4 <__addsf3>:
    3dc4:	bb 27       	eor	r27, r27
    3dc6:	aa 27       	eor	r26, r26
    3dc8:	0e d0       	rcall	.+28     	; 0x3de6 <__addsf3x>
    3dca:	75 c1       	rjmp	.+746    	; 0x40b6 <__fp_round>
    3dcc:	66 d1       	rcall	.+716    	; 0x409a <__fp_pscA>
    3dce:	30 f0       	brcs	.+12     	; 0x3ddc <__addsf3+0x18>
    3dd0:	6b d1       	rcall	.+726    	; 0x40a8 <__fp_pscB>
    3dd2:	20 f0       	brcs	.+8      	; 0x3ddc <__addsf3+0x18>
    3dd4:	31 f4       	brne	.+12     	; 0x3de2 <__addsf3+0x1e>
    3dd6:	9f 3f       	cpi	r25, 0xFF	; 255
    3dd8:	11 f4       	brne	.+4      	; 0x3dde <__addsf3+0x1a>
    3dda:	1e f4       	brtc	.+6      	; 0x3de2 <__addsf3+0x1e>
    3ddc:	5b c1       	rjmp	.+694    	; 0x4094 <__fp_nan>
    3dde:	0e f4       	brtc	.+2      	; 0x3de2 <__addsf3+0x1e>
    3de0:	e0 95       	com	r30
    3de2:	e7 fb       	bst	r30, 7
    3de4:	51 c1       	rjmp	.+674    	; 0x4088 <__fp_inf>

00003de6 <__addsf3x>:
    3de6:	e9 2f       	mov	r30, r25
    3de8:	77 d1       	rcall	.+750    	; 0x40d8 <__fp_split3>
    3dea:	80 f3       	brcs	.-32     	; 0x3dcc <__addsf3+0x8>
    3dec:	ba 17       	cp	r27, r26
    3dee:	62 07       	cpc	r22, r18
    3df0:	73 07       	cpc	r23, r19
    3df2:	84 07       	cpc	r24, r20
    3df4:	95 07       	cpc	r25, r21
    3df6:	18 f0       	brcs	.+6      	; 0x3dfe <__addsf3x+0x18>
    3df8:	71 f4       	brne	.+28     	; 0x3e16 <__addsf3x+0x30>
    3dfa:	9e f5       	brtc	.+102    	; 0x3e62 <__addsf3x+0x7c>
    3dfc:	8f c1       	rjmp	.+798    	; 0x411c <__fp_zero>
    3dfe:	0e f4       	brtc	.+2      	; 0x3e02 <__addsf3x+0x1c>
    3e00:	e0 95       	com	r30
    3e02:	0b 2e       	mov	r0, r27
    3e04:	ba 2f       	mov	r27, r26
    3e06:	a0 2d       	mov	r26, r0
    3e08:	0b 01       	movw	r0, r22
    3e0a:	b9 01       	movw	r22, r18
    3e0c:	90 01       	movw	r18, r0
    3e0e:	0c 01       	movw	r0, r24
    3e10:	ca 01       	movw	r24, r20
    3e12:	a0 01       	movw	r20, r0
    3e14:	11 24       	eor	r1, r1
    3e16:	ff 27       	eor	r31, r31
    3e18:	59 1b       	sub	r21, r25
    3e1a:	99 f0       	breq	.+38     	; 0x3e42 <__addsf3x+0x5c>
    3e1c:	59 3f       	cpi	r21, 0xF9	; 249
    3e1e:	50 f4       	brcc	.+20     	; 0x3e34 <__addsf3x+0x4e>
    3e20:	50 3e       	cpi	r21, 0xE0	; 224
    3e22:	68 f1       	brcs	.+90     	; 0x3e7e <__addsf3x+0x98>
    3e24:	1a 16       	cp	r1, r26
    3e26:	f0 40       	sbci	r31, 0x00	; 0
    3e28:	a2 2f       	mov	r26, r18
    3e2a:	23 2f       	mov	r18, r19
    3e2c:	34 2f       	mov	r19, r20
    3e2e:	44 27       	eor	r20, r20
    3e30:	58 5f       	subi	r21, 0xF8	; 248
    3e32:	f3 cf       	rjmp	.-26     	; 0x3e1a <__addsf3x+0x34>
    3e34:	46 95       	lsr	r20
    3e36:	37 95       	ror	r19
    3e38:	27 95       	ror	r18
    3e3a:	a7 95       	ror	r26
    3e3c:	f0 40       	sbci	r31, 0x00	; 0
    3e3e:	53 95       	inc	r21
    3e40:	c9 f7       	brne	.-14     	; 0x3e34 <__addsf3x+0x4e>
    3e42:	7e f4       	brtc	.+30     	; 0x3e62 <__addsf3x+0x7c>
    3e44:	1f 16       	cp	r1, r31
    3e46:	ba 0b       	sbc	r27, r26
    3e48:	62 0b       	sbc	r22, r18
    3e4a:	73 0b       	sbc	r23, r19
    3e4c:	84 0b       	sbc	r24, r20
    3e4e:	ba f0       	brmi	.+46     	; 0x3e7e <__addsf3x+0x98>
    3e50:	91 50       	subi	r25, 0x01	; 1
    3e52:	a1 f0       	breq	.+40     	; 0x3e7c <__addsf3x+0x96>
    3e54:	ff 0f       	add	r31, r31
    3e56:	bb 1f       	adc	r27, r27
    3e58:	66 1f       	adc	r22, r22
    3e5a:	77 1f       	adc	r23, r23
    3e5c:	88 1f       	adc	r24, r24
    3e5e:	c2 f7       	brpl	.-16     	; 0x3e50 <__addsf3x+0x6a>
    3e60:	0e c0       	rjmp	.+28     	; 0x3e7e <__addsf3x+0x98>
    3e62:	ba 0f       	add	r27, r26
    3e64:	62 1f       	adc	r22, r18
    3e66:	73 1f       	adc	r23, r19
    3e68:	84 1f       	adc	r24, r20
    3e6a:	48 f4       	brcc	.+18     	; 0x3e7e <__addsf3x+0x98>
    3e6c:	87 95       	ror	r24
    3e6e:	77 95       	ror	r23
    3e70:	67 95       	ror	r22
    3e72:	b7 95       	ror	r27
    3e74:	f7 95       	ror	r31
    3e76:	9e 3f       	cpi	r25, 0xFE	; 254
    3e78:	08 f0       	brcs	.+2      	; 0x3e7c <__addsf3x+0x96>
    3e7a:	b3 cf       	rjmp	.-154    	; 0x3de2 <__addsf3+0x1e>
    3e7c:	93 95       	inc	r25
    3e7e:	88 0f       	add	r24, r24
    3e80:	08 f0       	brcs	.+2      	; 0x3e84 <__addsf3x+0x9e>
    3e82:	99 27       	eor	r25, r25
    3e84:	ee 0f       	add	r30, r30
    3e86:	97 95       	ror	r25
    3e88:	87 95       	ror	r24
    3e8a:	08 95       	ret

00003e8c <__cmpsf2>:
    3e8c:	d9 d0       	rcall	.+434    	; 0x4040 <__fp_cmp>
    3e8e:	08 f4       	brcc	.+2      	; 0x3e92 <__cmpsf2+0x6>
    3e90:	81 e0       	ldi	r24, 0x01	; 1
    3e92:	08 95       	ret

00003e94 <__divsf3>:
    3e94:	0c d0       	rcall	.+24     	; 0x3eae <__divsf3x>
    3e96:	0f c1       	rjmp	.+542    	; 0x40b6 <__fp_round>
    3e98:	07 d1       	rcall	.+526    	; 0x40a8 <__fp_pscB>
    3e9a:	40 f0       	brcs	.+16     	; 0x3eac <__divsf3+0x18>
    3e9c:	fe d0       	rcall	.+508    	; 0x409a <__fp_pscA>
    3e9e:	30 f0       	brcs	.+12     	; 0x3eac <__divsf3+0x18>
    3ea0:	21 f4       	brne	.+8      	; 0x3eaa <__divsf3+0x16>
    3ea2:	5f 3f       	cpi	r21, 0xFF	; 255
    3ea4:	19 f0       	breq	.+6      	; 0x3eac <__divsf3+0x18>
    3ea6:	f0 c0       	rjmp	.+480    	; 0x4088 <__fp_inf>
    3ea8:	51 11       	cpse	r21, r1
    3eaa:	39 c1       	rjmp	.+626    	; 0x411e <__fp_szero>
    3eac:	f3 c0       	rjmp	.+486    	; 0x4094 <__fp_nan>

00003eae <__divsf3x>:
    3eae:	14 d1       	rcall	.+552    	; 0x40d8 <__fp_split3>
    3eb0:	98 f3       	brcs	.-26     	; 0x3e98 <__divsf3+0x4>

00003eb2 <__divsf3_pse>:
    3eb2:	99 23       	and	r25, r25
    3eb4:	c9 f3       	breq	.-14     	; 0x3ea8 <__divsf3+0x14>
    3eb6:	55 23       	and	r21, r21
    3eb8:	b1 f3       	breq	.-20     	; 0x3ea6 <__divsf3+0x12>
    3eba:	95 1b       	sub	r25, r21
    3ebc:	55 0b       	sbc	r21, r21
    3ebe:	bb 27       	eor	r27, r27
    3ec0:	aa 27       	eor	r26, r26
    3ec2:	62 17       	cp	r22, r18
    3ec4:	73 07       	cpc	r23, r19
    3ec6:	84 07       	cpc	r24, r20
    3ec8:	38 f0       	brcs	.+14     	; 0x3ed8 <__divsf3_pse+0x26>
    3eca:	9f 5f       	subi	r25, 0xFF	; 255
    3ecc:	5f 4f       	sbci	r21, 0xFF	; 255
    3ece:	22 0f       	add	r18, r18
    3ed0:	33 1f       	adc	r19, r19
    3ed2:	44 1f       	adc	r20, r20
    3ed4:	aa 1f       	adc	r26, r26
    3ed6:	a9 f3       	breq	.-22     	; 0x3ec2 <__divsf3_pse+0x10>
    3ed8:	33 d0       	rcall	.+102    	; 0x3f40 <__divsf3_pse+0x8e>
    3eda:	0e 2e       	mov	r0, r30
    3edc:	3a f0       	brmi	.+14     	; 0x3eec <__divsf3_pse+0x3a>
    3ede:	e0 e8       	ldi	r30, 0x80	; 128
    3ee0:	30 d0       	rcall	.+96     	; 0x3f42 <__divsf3_pse+0x90>
    3ee2:	91 50       	subi	r25, 0x01	; 1
    3ee4:	50 40       	sbci	r21, 0x00	; 0
    3ee6:	e6 95       	lsr	r30
    3ee8:	00 1c       	adc	r0, r0
    3eea:	ca f7       	brpl	.-14     	; 0x3ede <__divsf3_pse+0x2c>
    3eec:	29 d0       	rcall	.+82     	; 0x3f40 <__divsf3_pse+0x8e>
    3eee:	fe 2f       	mov	r31, r30
    3ef0:	27 d0       	rcall	.+78     	; 0x3f40 <__divsf3_pse+0x8e>
    3ef2:	66 0f       	add	r22, r22
    3ef4:	77 1f       	adc	r23, r23
    3ef6:	88 1f       	adc	r24, r24
    3ef8:	bb 1f       	adc	r27, r27
    3efa:	26 17       	cp	r18, r22
    3efc:	37 07       	cpc	r19, r23
    3efe:	48 07       	cpc	r20, r24
    3f00:	ab 07       	cpc	r26, r27
    3f02:	b0 e8       	ldi	r27, 0x80	; 128
    3f04:	09 f0       	breq	.+2      	; 0x3f08 <__divsf3_pse+0x56>
    3f06:	bb 0b       	sbc	r27, r27
    3f08:	80 2d       	mov	r24, r0
    3f0a:	bf 01       	movw	r22, r30
    3f0c:	ff 27       	eor	r31, r31
    3f0e:	93 58       	subi	r25, 0x83	; 131
    3f10:	5f 4f       	sbci	r21, 0xFF	; 255
    3f12:	2a f0       	brmi	.+10     	; 0x3f1e <__divsf3_pse+0x6c>
    3f14:	9e 3f       	cpi	r25, 0xFE	; 254
    3f16:	51 05       	cpc	r21, r1
    3f18:	68 f0       	brcs	.+26     	; 0x3f34 <__divsf3_pse+0x82>
    3f1a:	b6 c0       	rjmp	.+364    	; 0x4088 <__fp_inf>
    3f1c:	00 c1       	rjmp	.+512    	; 0x411e <__fp_szero>
    3f1e:	5f 3f       	cpi	r21, 0xFF	; 255
    3f20:	ec f3       	brlt	.-6      	; 0x3f1c <__divsf3_pse+0x6a>
    3f22:	98 3e       	cpi	r25, 0xE8	; 232
    3f24:	dc f3       	brlt	.-10     	; 0x3f1c <__divsf3_pse+0x6a>
    3f26:	86 95       	lsr	r24
    3f28:	77 95       	ror	r23
    3f2a:	67 95       	ror	r22
    3f2c:	b7 95       	ror	r27
    3f2e:	f7 95       	ror	r31
    3f30:	9f 5f       	subi	r25, 0xFF	; 255
    3f32:	c9 f7       	brne	.-14     	; 0x3f26 <__divsf3_pse+0x74>
    3f34:	88 0f       	add	r24, r24
    3f36:	91 1d       	adc	r25, r1
    3f38:	96 95       	lsr	r25
    3f3a:	87 95       	ror	r24
    3f3c:	97 f9       	bld	r25, 7
    3f3e:	08 95       	ret
    3f40:	e1 e0       	ldi	r30, 0x01	; 1
    3f42:	66 0f       	add	r22, r22
    3f44:	77 1f       	adc	r23, r23
    3f46:	88 1f       	adc	r24, r24
    3f48:	bb 1f       	adc	r27, r27
    3f4a:	62 17       	cp	r22, r18
    3f4c:	73 07       	cpc	r23, r19
    3f4e:	84 07       	cpc	r24, r20
    3f50:	ba 07       	cpc	r27, r26
    3f52:	20 f0       	brcs	.+8      	; 0x3f5c <__divsf3_pse+0xaa>
    3f54:	62 1b       	sub	r22, r18
    3f56:	73 0b       	sbc	r23, r19
    3f58:	84 0b       	sbc	r24, r20
    3f5a:	ba 0b       	sbc	r27, r26
    3f5c:	ee 1f       	adc	r30, r30
    3f5e:	88 f7       	brcc	.-30     	; 0x3f42 <__divsf3_pse+0x90>
    3f60:	e0 95       	com	r30
    3f62:	08 95       	ret

00003f64 <__fixsfsi>:
    3f64:	04 d0       	rcall	.+8      	; 0x3f6e <__fixunssfsi>
    3f66:	68 94       	set
    3f68:	b1 11       	cpse	r27, r1
    3f6a:	d9 c0       	rjmp	.+434    	; 0x411e <__fp_szero>
    3f6c:	08 95       	ret

00003f6e <__fixunssfsi>:
    3f6e:	bc d0       	rcall	.+376    	; 0x40e8 <__fp_splitA>
    3f70:	88 f0       	brcs	.+34     	; 0x3f94 <__fixunssfsi+0x26>
    3f72:	9f 57       	subi	r25, 0x7F	; 127
    3f74:	90 f0       	brcs	.+36     	; 0x3f9a <__fixunssfsi+0x2c>
    3f76:	b9 2f       	mov	r27, r25
    3f78:	99 27       	eor	r25, r25
    3f7a:	b7 51       	subi	r27, 0x17	; 23
    3f7c:	a0 f0       	brcs	.+40     	; 0x3fa6 <__fixunssfsi+0x38>
    3f7e:	d1 f0       	breq	.+52     	; 0x3fb4 <__fixunssfsi+0x46>
    3f80:	66 0f       	add	r22, r22
    3f82:	77 1f       	adc	r23, r23
    3f84:	88 1f       	adc	r24, r24
    3f86:	99 1f       	adc	r25, r25
    3f88:	1a f0       	brmi	.+6      	; 0x3f90 <__fixunssfsi+0x22>
    3f8a:	ba 95       	dec	r27
    3f8c:	c9 f7       	brne	.-14     	; 0x3f80 <__fixunssfsi+0x12>
    3f8e:	12 c0       	rjmp	.+36     	; 0x3fb4 <__fixunssfsi+0x46>
    3f90:	b1 30       	cpi	r27, 0x01	; 1
    3f92:	81 f0       	breq	.+32     	; 0x3fb4 <__fixunssfsi+0x46>
    3f94:	c3 d0       	rcall	.+390    	; 0x411c <__fp_zero>
    3f96:	b1 e0       	ldi	r27, 0x01	; 1
    3f98:	08 95       	ret
    3f9a:	c0 c0       	rjmp	.+384    	; 0x411c <__fp_zero>
    3f9c:	67 2f       	mov	r22, r23
    3f9e:	78 2f       	mov	r23, r24
    3fa0:	88 27       	eor	r24, r24
    3fa2:	b8 5f       	subi	r27, 0xF8	; 248
    3fa4:	39 f0       	breq	.+14     	; 0x3fb4 <__fixunssfsi+0x46>
    3fa6:	b9 3f       	cpi	r27, 0xF9	; 249
    3fa8:	cc f3       	brlt	.-14     	; 0x3f9c <__fixunssfsi+0x2e>
    3faa:	86 95       	lsr	r24
    3fac:	77 95       	ror	r23
    3fae:	67 95       	ror	r22
    3fb0:	b3 95       	inc	r27
    3fb2:	d9 f7       	brne	.-10     	; 0x3faa <__fixunssfsi+0x3c>
    3fb4:	3e f4       	brtc	.+14     	; 0x3fc4 <__fixunssfsi+0x56>
    3fb6:	90 95       	com	r25
    3fb8:	80 95       	com	r24
    3fba:	70 95       	com	r23
    3fbc:	61 95       	neg	r22
    3fbe:	7f 4f       	sbci	r23, 0xFF	; 255
    3fc0:	8f 4f       	sbci	r24, 0xFF	; 255
    3fc2:	9f 4f       	sbci	r25, 0xFF	; 255
    3fc4:	08 95       	ret

00003fc6 <__floatunsisf>:
    3fc6:	e8 94       	clt
    3fc8:	09 c0       	rjmp	.+18     	; 0x3fdc <__floatsisf+0x12>

00003fca <__floatsisf>:
    3fca:	97 fb       	bst	r25, 7
    3fcc:	3e f4       	brtc	.+14     	; 0x3fdc <__floatsisf+0x12>
    3fce:	90 95       	com	r25
    3fd0:	80 95       	com	r24
    3fd2:	70 95       	com	r23
    3fd4:	61 95       	neg	r22
    3fd6:	7f 4f       	sbci	r23, 0xFF	; 255
    3fd8:	8f 4f       	sbci	r24, 0xFF	; 255
    3fda:	9f 4f       	sbci	r25, 0xFF	; 255
    3fdc:	99 23       	and	r25, r25
    3fde:	a9 f0       	breq	.+42     	; 0x400a <__floatsisf+0x40>
    3fe0:	f9 2f       	mov	r31, r25
    3fe2:	96 e9       	ldi	r25, 0x96	; 150
    3fe4:	bb 27       	eor	r27, r27
    3fe6:	93 95       	inc	r25
    3fe8:	f6 95       	lsr	r31
    3fea:	87 95       	ror	r24
    3fec:	77 95       	ror	r23
    3fee:	67 95       	ror	r22
    3ff0:	b7 95       	ror	r27
    3ff2:	f1 11       	cpse	r31, r1
    3ff4:	f8 cf       	rjmp	.-16     	; 0x3fe6 <__floatsisf+0x1c>
    3ff6:	fa f4       	brpl	.+62     	; 0x4036 <__floatsisf+0x6c>
    3ff8:	bb 0f       	add	r27, r27
    3ffa:	11 f4       	brne	.+4      	; 0x4000 <__floatsisf+0x36>
    3ffc:	60 ff       	sbrs	r22, 0
    3ffe:	1b c0       	rjmp	.+54     	; 0x4036 <__floatsisf+0x6c>
    4000:	6f 5f       	subi	r22, 0xFF	; 255
    4002:	7f 4f       	sbci	r23, 0xFF	; 255
    4004:	8f 4f       	sbci	r24, 0xFF	; 255
    4006:	9f 4f       	sbci	r25, 0xFF	; 255
    4008:	16 c0       	rjmp	.+44     	; 0x4036 <__floatsisf+0x6c>
    400a:	88 23       	and	r24, r24
    400c:	11 f0       	breq	.+4      	; 0x4012 <__floatsisf+0x48>
    400e:	96 e9       	ldi	r25, 0x96	; 150
    4010:	11 c0       	rjmp	.+34     	; 0x4034 <__floatsisf+0x6a>
    4012:	77 23       	and	r23, r23
    4014:	21 f0       	breq	.+8      	; 0x401e <__floatsisf+0x54>
    4016:	9e e8       	ldi	r25, 0x8E	; 142
    4018:	87 2f       	mov	r24, r23
    401a:	76 2f       	mov	r23, r22
    401c:	05 c0       	rjmp	.+10     	; 0x4028 <__floatsisf+0x5e>
    401e:	66 23       	and	r22, r22
    4020:	71 f0       	breq	.+28     	; 0x403e <__floatsisf+0x74>
    4022:	96 e8       	ldi	r25, 0x86	; 134
    4024:	86 2f       	mov	r24, r22
    4026:	70 e0       	ldi	r23, 0x00	; 0
    4028:	60 e0       	ldi	r22, 0x00	; 0
    402a:	2a f0       	brmi	.+10     	; 0x4036 <__floatsisf+0x6c>
    402c:	9a 95       	dec	r25
    402e:	66 0f       	add	r22, r22
    4030:	77 1f       	adc	r23, r23
    4032:	88 1f       	adc	r24, r24
    4034:	da f7       	brpl	.-10     	; 0x402c <__floatsisf+0x62>
    4036:	88 0f       	add	r24, r24
    4038:	96 95       	lsr	r25
    403a:	87 95       	ror	r24
    403c:	97 f9       	bld	r25, 7
    403e:	08 95       	ret

00004040 <__fp_cmp>:
    4040:	99 0f       	add	r25, r25
    4042:	00 08       	sbc	r0, r0
    4044:	55 0f       	add	r21, r21
    4046:	aa 0b       	sbc	r26, r26
    4048:	e0 e8       	ldi	r30, 0x80	; 128
    404a:	fe ef       	ldi	r31, 0xFE	; 254
    404c:	16 16       	cp	r1, r22
    404e:	17 06       	cpc	r1, r23
    4050:	e8 07       	cpc	r30, r24
    4052:	f9 07       	cpc	r31, r25
    4054:	c0 f0       	brcs	.+48     	; 0x4086 <__fp_cmp+0x46>
    4056:	12 16       	cp	r1, r18
    4058:	13 06       	cpc	r1, r19
    405a:	e4 07       	cpc	r30, r20
    405c:	f5 07       	cpc	r31, r21
    405e:	98 f0       	brcs	.+38     	; 0x4086 <__fp_cmp+0x46>
    4060:	62 1b       	sub	r22, r18
    4062:	73 0b       	sbc	r23, r19
    4064:	84 0b       	sbc	r24, r20
    4066:	95 0b       	sbc	r25, r21
    4068:	39 f4       	brne	.+14     	; 0x4078 <__fp_cmp+0x38>
    406a:	0a 26       	eor	r0, r26
    406c:	61 f0       	breq	.+24     	; 0x4086 <__fp_cmp+0x46>
    406e:	23 2b       	or	r18, r19
    4070:	24 2b       	or	r18, r20
    4072:	25 2b       	or	r18, r21
    4074:	21 f4       	brne	.+8      	; 0x407e <__fp_cmp+0x3e>
    4076:	08 95       	ret
    4078:	0a 26       	eor	r0, r26
    407a:	09 f4       	brne	.+2      	; 0x407e <__fp_cmp+0x3e>
    407c:	a1 40       	sbci	r26, 0x01	; 1
    407e:	a6 95       	lsr	r26
    4080:	8f ef       	ldi	r24, 0xFF	; 255
    4082:	81 1d       	adc	r24, r1
    4084:	81 1d       	adc	r24, r1
    4086:	08 95       	ret

00004088 <__fp_inf>:
    4088:	97 f9       	bld	r25, 7
    408a:	9f 67       	ori	r25, 0x7F	; 127
    408c:	80 e8       	ldi	r24, 0x80	; 128
    408e:	70 e0       	ldi	r23, 0x00	; 0
    4090:	60 e0       	ldi	r22, 0x00	; 0
    4092:	08 95       	ret

00004094 <__fp_nan>:
    4094:	9f ef       	ldi	r25, 0xFF	; 255
    4096:	80 ec       	ldi	r24, 0xC0	; 192
    4098:	08 95       	ret

0000409a <__fp_pscA>:
    409a:	00 24       	eor	r0, r0
    409c:	0a 94       	dec	r0
    409e:	16 16       	cp	r1, r22
    40a0:	17 06       	cpc	r1, r23
    40a2:	18 06       	cpc	r1, r24
    40a4:	09 06       	cpc	r0, r25
    40a6:	08 95       	ret

000040a8 <__fp_pscB>:
    40a8:	00 24       	eor	r0, r0
    40aa:	0a 94       	dec	r0
    40ac:	12 16       	cp	r1, r18
    40ae:	13 06       	cpc	r1, r19
    40b0:	14 06       	cpc	r1, r20
    40b2:	05 06       	cpc	r0, r21
    40b4:	08 95       	ret

000040b6 <__fp_round>:
    40b6:	09 2e       	mov	r0, r25
    40b8:	03 94       	inc	r0
    40ba:	00 0c       	add	r0, r0
    40bc:	11 f4       	brne	.+4      	; 0x40c2 <__fp_round+0xc>
    40be:	88 23       	and	r24, r24
    40c0:	52 f0       	brmi	.+20     	; 0x40d6 <__fp_round+0x20>
    40c2:	bb 0f       	add	r27, r27
    40c4:	40 f4       	brcc	.+16     	; 0x40d6 <__fp_round+0x20>
    40c6:	bf 2b       	or	r27, r31
    40c8:	11 f4       	brne	.+4      	; 0x40ce <__fp_round+0x18>
    40ca:	60 ff       	sbrs	r22, 0
    40cc:	04 c0       	rjmp	.+8      	; 0x40d6 <__fp_round+0x20>
    40ce:	6f 5f       	subi	r22, 0xFF	; 255
    40d0:	7f 4f       	sbci	r23, 0xFF	; 255
    40d2:	8f 4f       	sbci	r24, 0xFF	; 255
    40d4:	9f 4f       	sbci	r25, 0xFF	; 255
    40d6:	08 95       	ret

000040d8 <__fp_split3>:
    40d8:	57 fd       	sbrc	r21, 7
    40da:	90 58       	subi	r25, 0x80	; 128
    40dc:	44 0f       	add	r20, r20
    40de:	55 1f       	adc	r21, r21
    40e0:	59 f0       	breq	.+22     	; 0x40f8 <__fp_splitA+0x10>
    40e2:	5f 3f       	cpi	r21, 0xFF	; 255
    40e4:	71 f0       	breq	.+28     	; 0x4102 <__fp_splitA+0x1a>
    40e6:	47 95       	ror	r20

000040e8 <__fp_splitA>:
    40e8:	88 0f       	add	r24, r24
    40ea:	97 fb       	bst	r25, 7
    40ec:	99 1f       	adc	r25, r25
    40ee:	61 f0       	breq	.+24     	; 0x4108 <__fp_splitA+0x20>
    40f0:	9f 3f       	cpi	r25, 0xFF	; 255
    40f2:	79 f0       	breq	.+30     	; 0x4112 <__fp_splitA+0x2a>
    40f4:	87 95       	ror	r24
    40f6:	08 95       	ret
    40f8:	12 16       	cp	r1, r18
    40fa:	13 06       	cpc	r1, r19
    40fc:	14 06       	cpc	r1, r20
    40fe:	55 1f       	adc	r21, r21
    4100:	f2 cf       	rjmp	.-28     	; 0x40e6 <__fp_split3+0xe>
    4102:	46 95       	lsr	r20
    4104:	f1 df       	rcall	.-30     	; 0x40e8 <__fp_splitA>
    4106:	08 c0       	rjmp	.+16     	; 0x4118 <__fp_splitA+0x30>
    4108:	16 16       	cp	r1, r22
    410a:	17 06       	cpc	r1, r23
    410c:	18 06       	cpc	r1, r24
    410e:	99 1f       	adc	r25, r25
    4110:	f1 cf       	rjmp	.-30     	; 0x40f4 <__fp_splitA+0xc>
    4112:	86 95       	lsr	r24
    4114:	71 05       	cpc	r23, r1
    4116:	61 05       	cpc	r22, r1
    4118:	08 94       	sec
    411a:	08 95       	ret

0000411c <__fp_zero>:
    411c:	e8 94       	clt

0000411e <__fp_szero>:
    411e:	bb 27       	eor	r27, r27
    4120:	66 27       	eor	r22, r22
    4122:	77 27       	eor	r23, r23
    4124:	cb 01       	movw	r24, r22
    4126:	97 f9       	bld	r25, 7
    4128:	08 95       	ret

0000412a <__mulsf3>:
    412a:	0b d0       	rcall	.+22     	; 0x4142 <__mulsf3x>
    412c:	c4 cf       	rjmp	.-120    	; 0x40b6 <__fp_round>
    412e:	b5 df       	rcall	.-150    	; 0x409a <__fp_pscA>
    4130:	28 f0       	brcs	.+10     	; 0x413c <__mulsf3+0x12>
    4132:	ba df       	rcall	.-140    	; 0x40a8 <__fp_pscB>
    4134:	18 f0       	brcs	.+6      	; 0x413c <__mulsf3+0x12>
    4136:	95 23       	and	r25, r21
    4138:	09 f0       	breq	.+2      	; 0x413c <__mulsf3+0x12>
    413a:	a6 cf       	rjmp	.-180    	; 0x4088 <__fp_inf>
    413c:	ab cf       	rjmp	.-170    	; 0x4094 <__fp_nan>
    413e:	11 24       	eor	r1, r1
    4140:	ee cf       	rjmp	.-36     	; 0x411e <__fp_szero>

00004142 <__mulsf3x>:
    4142:	ca df       	rcall	.-108    	; 0x40d8 <__fp_split3>
    4144:	a0 f3       	brcs	.-24     	; 0x412e <__mulsf3+0x4>

00004146 <__mulsf3_pse>:
    4146:	95 9f       	mul	r25, r21
    4148:	d1 f3       	breq	.-12     	; 0x413e <__mulsf3+0x14>
    414a:	95 0f       	add	r25, r21
    414c:	50 e0       	ldi	r21, 0x00	; 0
    414e:	55 1f       	adc	r21, r21
    4150:	62 9f       	mul	r22, r18
    4152:	f0 01       	movw	r30, r0
    4154:	72 9f       	mul	r23, r18
    4156:	bb 27       	eor	r27, r27
    4158:	f0 0d       	add	r31, r0
    415a:	b1 1d       	adc	r27, r1
    415c:	63 9f       	mul	r22, r19
    415e:	aa 27       	eor	r26, r26
    4160:	f0 0d       	add	r31, r0
    4162:	b1 1d       	adc	r27, r1
    4164:	aa 1f       	adc	r26, r26
    4166:	64 9f       	mul	r22, r20
    4168:	66 27       	eor	r22, r22
    416a:	b0 0d       	add	r27, r0
    416c:	a1 1d       	adc	r26, r1
    416e:	66 1f       	adc	r22, r22
    4170:	82 9f       	mul	r24, r18
    4172:	22 27       	eor	r18, r18
    4174:	b0 0d       	add	r27, r0
    4176:	a1 1d       	adc	r26, r1
    4178:	62 1f       	adc	r22, r18
    417a:	73 9f       	mul	r23, r19
    417c:	b0 0d       	add	r27, r0
    417e:	a1 1d       	adc	r26, r1
    4180:	62 1f       	adc	r22, r18
    4182:	83 9f       	mul	r24, r19
    4184:	a0 0d       	add	r26, r0
    4186:	61 1d       	adc	r22, r1
    4188:	22 1f       	adc	r18, r18
    418a:	74 9f       	mul	r23, r20
    418c:	33 27       	eor	r19, r19
    418e:	a0 0d       	add	r26, r0
    4190:	61 1d       	adc	r22, r1
    4192:	23 1f       	adc	r18, r19
    4194:	84 9f       	mul	r24, r20
    4196:	60 0d       	add	r22, r0
    4198:	21 1d       	adc	r18, r1
    419a:	82 2f       	mov	r24, r18
    419c:	76 2f       	mov	r23, r22
    419e:	6a 2f       	mov	r22, r26
    41a0:	11 24       	eor	r1, r1
    41a2:	9f 57       	subi	r25, 0x7F	; 127
    41a4:	50 40       	sbci	r21, 0x00	; 0
    41a6:	8a f0       	brmi	.+34     	; 0x41ca <__mulsf3_pse+0x84>
    41a8:	e1 f0       	breq	.+56     	; 0x41e2 <__mulsf3_pse+0x9c>
    41aa:	88 23       	and	r24, r24
    41ac:	4a f0       	brmi	.+18     	; 0x41c0 <__mulsf3_pse+0x7a>
    41ae:	ee 0f       	add	r30, r30
    41b0:	ff 1f       	adc	r31, r31
    41b2:	bb 1f       	adc	r27, r27
    41b4:	66 1f       	adc	r22, r22
    41b6:	77 1f       	adc	r23, r23
    41b8:	88 1f       	adc	r24, r24
    41ba:	91 50       	subi	r25, 0x01	; 1
    41bc:	50 40       	sbci	r21, 0x00	; 0
    41be:	a9 f7       	brne	.-22     	; 0x41aa <__mulsf3_pse+0x64>
    41c0:	9e 3f       	cpi	r25, 0xFE	; 254
    41c2:	51 05       	cpc	r21, r1
    41c4:	70 f0       	brcs	.+28     	; 0x41e2 <__mulsf3_pse+0x9c>
    41c6:	60 cf       	rjmp	.-320    	; 0x4088 <__fp_inf>
    41c8:	aa cf       	rjmp	.-172    	; 0x411e <__fp_szero>
    41ca:	5f 3f       	cpi	r21, 0xFF	; 255
    41cc:	ec f3       	brlt	.-6      	; 0x41c8 <__mulsf3_pse+0x82>
    41ce:	98 3e       	cpi	r25, 0xE8	; 232
    41d0:	dc f3       	brlt	.-10     	; 0x41c8 <__mulsf3_pse+0x82>
    41d2:	86 95       	lsr	r24
    41d4:	77 95       	ror	r23
    41d6:	67 95       	ror	r22
    41d8:	b7 95       	ror	r27
    41da:	f7 95       	ror	r31
    41dc:	e7 95       	ror	r30
    41de:	9f 5f       	subi	r25, 0xFF	; 255
    41e0:	c1 f7       	brne	.-16     	; 0x41d2 <__mulsf3_pse+0x8c>
    41e2:	fe 2b       	or	r31, r30
    41e4:	88 0f       	add	r24, r24
    41e6:	91 1d       	adc	r25, r1
    41e8:	96 95       	lsr	r25
    41ea:	87 95       	ror	r24
    41ec:	97 f9       	bld	r25, 7
    41ee:	08 95       	ret

000041f0 <__udivmodqi4>:
    41f0:	99 1b       	sub	r25, r25
    41f2:	79 e0       	ldi	r23, 0x09	; 9
    41f4:	04 c0       	rjmp	.+8      	; 0x41fe <__udivmodqi4_ep>

000041f6 <__udivmodqi4_loop>:
    41f6:	99 1f       	adc	r25, r25
    41f8:	96 17       	cp	r25, r22
    41fa:	08 f0       	brcs	.+2      	; 0x41fe <__udivmodqi4_ep>
    41fc:	96 1b       	sub	r25, r22

000041fe <__udivmodqi4_ep>:
    41fe:	88 1f       	adc	r24, r24
    4200:	7a 95       	dec	r23
    4202:	c9 f7       	brne	.-14     	; 0x41f6 <__udivmodqi4_loop>
    4204:	80 95       	com	r24
    4206:	08 95       	ret

00004208 <__udivmodhi4>:
    4208:	aa 1b       	sub	r26, r26
    420a:	bb 1b       	sub	r27, r27
    420c:	51 e1       	ldi	r21, 0x11	; 17
    420e:	07 c0       	rjmp	.+14     	; 0x421e <__udivmodhi4_ep>

00004210 <__udivmodhi4_loop>:
    4210:	aa 1f       	adc	r26, r26
    4212:	bb 1f       	adc	r27, r27
    4214:	a6 17       	cp	r26, r22
    4216:	b7 07       	cpc	r27, r23
    4218:	10 f0       	brcs	.+4      	; 0x421e <__udivmodhi4_ep>
    421a:	a6 1b       	sub	r26, r22
    421c:	b7 0b       	sbc	r27, r23

0000421e <__udivmodhi4_ep>:
    421e:	88 1f       	adc	r24, r24
    4220:	99 1f       	adc	r25, r25
    4222:	5a 95       	dec	r21
    4224:	a9 f7       	brne	.-22     	; 0x4210 <__udivmodhi4_loop>
    4226:	80 95       	com	r24
    4228:	90 95       	com	r25
    422a:	bc 01       	movw	r22, r24
    422c:	cd 01       	movw	r24, r26
    422e:	08 95       	ret

00004230 <__tablejump2__>:
    4230:	ee 0f       	add	r30, r30
    4232:	ff 1f       	adc	r31, r31
    4234:	00 24       	eor	r0, r0
    4236:	00 1c       	adc	r0, r0
    4238:	0b be       	out	0x3b, r0	; 59
    423a:	07 90       	elpm	r0, Z+
    423c:	f6 91       	elpm	r31, Z
    423e:	e0 2d       	mov	r30, r0
    4240:	09 94       	ijmp

00004242 <strcpy>:
    4242:	fb 01       	movw	r30, r22
    4244:	dc 01       	movw	r26, r24
    4246:	01 90       	ld	r0, Z+
    4248:	0d 92       	st	X+, r0
    424a:	00 20       	and	r0, r0
    424c:	e1 f7       	brne	.-8      	; 0x4246 <strcpy+0x4>
    424e:	08 95       	ret

00004250 <__itoa_ncheck>:
    4250:	bb 27       	eor	r27, r27
    4252:	4a 30       	cpi	r20, 0x0A	; 10
    4254:	31 f4       	brne	.+12     	; 0x4262 <__itoa_ncheck+0x12>
    4256:	99 23       	and	r25, r25
    4258:	22 f4       	brpl	.+8      	; 0x4262 <__itoa_ncheck+0x12>
    425a:	bd e2       	ldi	r27, 0x2D	; 45
    425c:	90 95       	com	r25
    425e:	81 95       	neg	r24
    4260:	9f 4f       	sbci	r25, 0xFF	; 255
    4262:	01 c0       	rjmp	.+2      	; 0x4266 <__utoa_common>

00004264 <__utoa_ncheck>:
    4264:	bb 27       	eor	r27, r27

00004266 <__utoa_common>:
    4266:	fb 01       	movw	r30, r22
    4268:	55 27       	eor	r21, r21
    426a:	aa 27       	eor	r26, r26
    426c:	88 0f       	add	r24, r24
    426e:	99 1f       	adc	r25, r25
    4270:	aa 1f       	adc	r26, r26
    4272:	a4 17       	cp	r26, r20
    4274:	10 f0       	brcs	.+4      	; 0x427a <__utoa_common+0x14>
    4276:	a4 1b       	sub	r26, r20
    4278:	83 95       	inc	r24
    427a:	50 51       	subi	r21, 0x10	; 16
    427c:	b9 f7       	brne	.-18     	; 0x426c <__utoa_common+0x6>
    427e:	a0 5d       	subi	r26, 0xD0	; 208
    4280:	aa 33       	cpi	r26, 0x3A	; 58
    4282:	08 f0       	brcs	.+2      	; 0x4286 <__utoa_common+0x20>
    4284:	a9 5d       	subi	r26, 0xD9	; 217
    4286:	a1 93       	st	Z+, r26
    4288:	00 97       	sbiw	r24, 0x00	; 0
    428a:	79 f7       	brne	.-34     	; 0x426a <__utoa_common+0x4>
    428c:	b1 11       	cpse	r27, r1
    428e:	b1 93       	st	Z+, r27
    4290:	11 92       	st	Z+, r1
    4292:	cb 01       	movw	r24, r22
    4294:	00 c0       	rjmp	.+0      	; 0x4296 <strrev>

00004296 <strrev>:
    4296:	dc 01       	movw	r26, r24
    4298:	fc 01       	movw	r30, r24
    429a:	67 2f       	mov	r22, r23
    429c:	71 91       	ld	r23, Z+
    429e:	77 23       	and	r23, r23
    42a0:	e1 f7       	brne	.-8      	; 0x429a <strrev+0x4>
    42a2:	32 97       	sbiw	r30, 0x02	; 2
    42a4:	04 c0       	rjmp	.+8      	; 0x42ae <strrev+0x18>
    42a6:	7c 91       	ld	r23, X
    42a8:	6d 93       	st	X+, r22
    42aa:	70 83       	st	Z, r23
    42ac:	62 91       	ld	r22, -Z
    42ae:	ae 17       	cp	r26, r30
    42b0:	bf 07       	cpc	r27, r31
    42b2:	c8 f3       	brcs	.-14     	; 0x42a6 <strrev+0x10>
    42b4:	08 95       	ret

000042b6 <eeprom_read_byte>:
    42b6:	e1 99       	sbic	0x1c, 1	; 28
    42b8:	fe cf       	rjmp	.-4      	; 0x42b6 <eeprom_read_byte>
    42ba:	9f bb       	out	0x1f, r25	; 31
    42bc:	8e bb       	out	0x1e, r24	; 30
    42be:	e0 9a       	sbi	0x1c, 0	; 28
    42c0:	99 27       	eor	r25, r25
    42c2:	8d b3       	in	r24, 0x1d	; 29
    42c4:	08 95       	ret

000042c6 <eeprom_read_word>:
    42c6:	a8 e1       	ldi	r26, 0x18	; 24
    42c8:	b0 e0       	ldi	r27, 0x00	; 0
    42ca:	42 e0       	ldi	r20, 0x02	; 2
    42cc:	50 e0       	ldi	r21, 0x00	; 0
    42ce:	12 c0       	rjmp	.+36     	; 0x42f4 <eeprom_read_blraw>

000042d0 <eeprom_write_byte>:
    42d0:	26 2f       	mov	r18, r22

000042d2 <eeprom_write_r18>:
    42d2:	e1 99       	sbic	0x1c, 1	; 28
    42d4:	fe cf       	rjmp	.-4      	; 0x42d2 <eeprom_write_r18>
    42d6:	9f bb       	out	0x1f, r25	; 31
    42d8:	8e bb       	out	0x1e, r24	; 30
    42da:	2d bb       	out	0x1d, r18	; 29
    42dc:	0f b6       	in	r0, 0x3f	; 63
    42de:	f8 94       	cli
    42e0:	e2 9a       	sbi	0x1c, 2	; 28
    42e2:	e1 9a       	sbi	0x1c, 1	; 28
    42e4:	0f be       	out	0x3f, r0	; 63
    42e6:	01 96       	adiw	r24, 0x01	; 1
    42e8:	08 95       	ret

000042ea <eeprom_write_word>:
    42ea:	f2 df       	rcall	.-28     	; 0x42d0 <eeprom_write_byte>
    42ec:	27 2f       	mov	r18, r23
    42ee:	f1 cf       	rjmp	.-30     	; 0x42d2 <eeprom_write_r18>

000042f0 <eeprom_read_block>:
    42f0:	dc 01       	movw	r26, r24
    42f2:	cb 01       	movw	r24, r22

000042f4 <eeprom_read_blraw>:
    42f4:	fc 01       	movw	r30, r24
    42f6:	e1 99       	sbic	0x1c, 1	; 28
    42f8:	fe cf       	rjmp	.-4      	; 0x42f6 <eeprom_read_blraw+0x2>
    42fa:	06 c0       	rjmp	.+12     	; 0x4308 <eeprom_read_blraw+0x14>
    42fc:	ff bb       	out	0x1f, r31	; 31
    42fe:	ee bb       	out	0x1e, r30	; 30
    4300:	e0 9a       	sbi	0x1c, 0	; 28
    4302:	31 96       	adiw	r30, 0x01	; 1
    4304:	0d b2       	in	r0, 0x1d	; 29
    4306:	0d 92       	st	X+, r0
    4308:	41 50       	subi	r20, 0x01	; 1
    430a:	50 40       	sbci	r21, 0x00	; 0
    430c:	b8 f7       	brcc	.-18     	; 0x42fc <eeprom_read_blraw+0x8>
    430e:	08 95       	ret

00004310 <_exit>:
    4310:	f8 94       	cli

00004312 <__stop_program>:
    4312:	ff cf       	rjmp	.-2      	; 0x4312 <__stop_program>
